ccopy_reg
_reconstructor
p0
(cmatplotlib.axes._subplots
_PicklableSubplotClassConstructor
p1
c__builtin__
object
p2
Ntp3
Rp4
(cmatplotlib.axes._axes
Axes
p5
tp6
Rp7
(dp8
S'transLimits'
p9
g0
(cmatplotlib.transforms
BboxTransformFrom
p10
g2
Ntp11
Rp12
(dp13
S'_invalid'
p14
I2
sS'_boxin'
p15
g0
(cmatplotlib.transforms
TransformedBbox
p16
g2
Ntp17
Rp18
(dp19
g14
I2
sS'_bbox'
p20
g0
(cmatplotlib.transforms
Bbox
p21
g2
Ntp22
Rp23
(dp24
g14
I2
sS'_minpos'
p25
cnumpy.core.multiarray
_reconstruct
p26
(cnumpy
ndarray
p27
(I0
tp28
S'b'
p29
tp30
Rp31
(I1
(I2
tp32
cnumpy
dtype
p33
(S'f8'
p34
I0
I1
tp35
Rp36
(I3
S'<'
p37
NNNI-1
I-1
I0
tp38
bI00
S'H\xaf\xbc\x9a\xf2\xd7z>H\xaf\xbc\x9a\xf2\xd7z>'
p39
tp40
bsS'_parents'
p41
(dp42
I139769199711056
g18
ssS'_points_orig'
p43
g26
(g27
(I0
tp44
g29
tp45
Rp46
(I1
(I2
I2
tp47
g36
I00
S'\x00\x00\x00\x00\x00\x00\x00\x00\x00\x00\x00\x00\x00\x00\x00\x00\x00\x00\x00\x00\x00\x00\xf0?\x00\x00\x00\x00\x00\x00\xf0?'
p48
tp49
bsS'_points'
p50
g26
(g27
(I0
tp51
g29
tp52
Rp53
(I1
(I2
I2
tp54
g36
I00
S'\x00\x00\x00\x00\x00\x00\x00\x00\x00\x00\x00\x00\x00\x00\xf0\xbf\x00\x00\x00\x00\x00\x00$@\x00\x00\x00\x00\x00\x00\xf0?'
p55
tp56
bsS'_ignore'
p57
I01
sS'_shorthand_name'
p58
V
p59
sbsS'_transform'
p60
g0
(cmatplotlib.transforms
TransformWrapper
p61
g2
Ntp62
Rp63
(dp64
Voutput_dims
p65
I2
sVparents
p66
(dp67
I139769199711056
g18
sI139769199711696
g0
(cmatplotlib.transforms
CompositeGenericTransform
p68
g2
Ntp69
Rp70
(dp71
g14
I2
sS'input_dims'
p72
I2
sS'_a'
p73
g63
sS'output_dims'
p74
I2
sS'_b'
p75
g0
(g68
g2
Ntp76
Rp77
(dp78
g14
I2
sg72
I2
sg73
g12
sg74
I2
sg75
g0
(cmatplotlib.transforms
BboxTransformTo
p79
g2
Ntp80
Rp81
(dp82
g14
I1
sS'_mtx'
p83
NsS'_inverted'
p84
NsS'_boxout'
p85
g0
(g16
g2
Ntp86
Rp87
(dp88
g14
I1
sg20
g0
(g21
g2
Ntp89
Rp90
(dp91
g14
I0
sg25
g26
(g27
(I0
tp92
g29
tp93
Rp94
(I1
(I2
tp95
g36
I00
S'H\xaf\xbc\x9a\xf2\xd7z>H\xaf\xbc\x9a\xf2\xd7z>'
p96
tp97
bsg41
(dp98
I139769199710544
g87
ssg43
g26
(g27
(I0
tp99
g29
tp100
Rp101
(I1
(I2
I2
tp102
g36
I00
S'\x00\x00\x00\x00\x00\x00\xc0?\x98\x99\x99\x99\x99\x99\xb9?\xcd\xcc\xcc\xcc\xcc\xcc\xec?\xcd\xcc\xcc\xcc\xcc\xcc\xec?'
p103
tp104
bsg50
g26
(g27
(I0
tp105
g29
tp106
Rp107
(I1
(I2
I2
tp108
g36
I00
S'\x00\x00\x00\x00\x00\x00\xc0?\x98\x99\x99\x99\x99\x99\xb9?\xcd\xcc\xcc\xcc\xcc\xcc\xec?\xcd\xcc\xcc\xcc\xcc\xcc\xec?'
p109
tp110
bsg57
I01
sg58
g59
sbsg60
g0
(g79
g2
Ntp111
Rp112
(dp113
g14
I1
sg83
Nsg84
Nsg85
g0
(g16
g2
Ntp114
Rp115
(dp116
g14
I0
sg20
g0
(g21
g2
Ntp117
Rp118
(dp119
g14
I0
sg25
g26
(g27
(I0
tp120
g29
tp121
Rp122
(I1
(I2
tp123
g36
I00
S'H\xaf\xbc\x9a\xf2\xd7z>H\xaf\xbc\x9a\xf2\xd7z>'
p124
tp125
bsg41
(dp126
I139769084541328
g115
ssg43
g26
(g27
(I0
tp127
g29
tp128
Rp129
(I1
(I2
I2
tp130
g36
I00
S'\x00\x00\x00\x00\x00\x00\x00\x00\x00\x00\x00\x00\x00\x00\x00\x00\x00\x00\x00\x00\x00\x00 @\x00\x00\x00\x00\x00\x00\x18@'
p131
tp132
bsg50
g26
(g27
(I0
tp133
g29
tp134
Rp135
(I1
(I2
I2
tp136
g36
I00
S'\x00\x00\x00\x00\x00\x00\x00\x00\x00\x00\x00\x00\x00\x00\x00\x00\x00\x00\x00\x00\x00\x00 @\x00\x00\x00\x00\x00\x00\x18@'
p137
tp138
bsg57
I01
sg58
g59
sbsg60
g0
(cmatplotlib.transforms
Affine2D
p139
g2
Ntp140
Rp141
(dp142
g14
I0
sg84
Nsg83
g26
(g27
(I0
tp143
g29
tp144
Rp145
(I1
(I3
I3
tp146
g36
I00
S'\x00\x00\x00\x00\x00\x00T@\x00\x00\x00\x00\x00\x00\x00\x00\x00\x00\x00\x00\x00\x00\x00\x00\x00\x00\x00\x00\x00\x00\x00\x00\x00\x00\x00\x00\x00\x00T@\x00\x00\x00\x00\x00\x00\x00\x00\x00\x00\x00\x00\x00\x00\x00\x00\x00\x00\x00\x00\x00\x00\x00\x00\x00\x00\x00\x00\x00\x00\xf0?'
p147
tp148
bsg58
g59
sg41
(dp149
I139769028222800
g0
(cmatplotlib.transforms
ScaledTranslation
p150
g2
Ntp151
Rp152
(dp153
g14
I1
sg83
NsS'_scale_trans'
p154
g141
sg84
NsS'_t'
p155
(F-0.05555555555555555
I0
tp156
sg58
g59
sg41
(dp157
I139769028222864
g0
(g68
g2
Ntp158
Rp159
(dp160
g14
I2
sg72
I2
sg73
g0
(cmatplotlib.transforms
BlendedGenericTransform
p161
g2
Ntp162
Rp163
(dp164
g14
I2
sS'_y'
p165
g70
sS'_x'
p166
g81
sS'_affine'
p167
Nsg41
(dp168
I139769028220816
g0
(g68
g2
Ntp169
Rp170
(dp171
g14
I2
sg72
I2
sg73
g163
sg74
I2
sg75
g0
(g150
g2
Ntp172
Rp173
(dp174
g14
I1
sg83
Nsg154
g141
sg84
Nsg155
(F0.05555555555555555
I0
tp175
sg58
g59
sg41
(dp176
I139769028220816
g170
ssbsg41
(dp177
sg58
g59
sbsI139769028081552
g0
(g68
g2
Ntp178
Rp179
(dp180
g14
I2
sg72
I2
sg73
g163
sg74
I2
sg75
g0
(g150
g2
Ntp181
Rp182
(dp183
g14
I1
sg83
Nsg154
g141
sg84
Nsg155
(F-0.05555555555555555
I0
tp184
sg58
g59
sg41
(dp185
I139769028081552
g179
ssbsg41
(dp186
sg58
g59
sbsI139769023453200
g0
(g68
g2
Ntp187
Rp188
(dp189
g14
I2
sg72
I2
sg73
g163
sg74
I2
sg75
g0
(g150
g2
Ntp190
Rp191
(dp192
g14
I1
sg83
Nsg154
g141
sg84
Nsg155
(F0.05555555555555555
I0
tp193
sg58
g59
sg41
(dp194
I139769023453200
g188
ssbsg41
(dp195
sg58
g59
sbsI139769023451344
g0
(g68
g2
Ntp196
Rp197
(dp198
g14
I2
sg72
I2
sg73
g163
sg74
I2
sg75
g0
(g150
g2
Ntp199
Rp200
(dp201
g14
I1
sg83
Nsg154
g141
sg84
Nsg155
(F0.05555555555555555
I0
tp202
sg58
g59
sg41
(dp203
I139769023451344
g197
ssbsg41
(dp204
sg58
g59
sbsI139769028080016
g0
(g68
g2
Ntp205
Rp206
(dp207
g14
I2
sg72
I2
sg73
g163
sg74
I2
sg75
g0
(g150
g2
Ntp208
Rp209
(dp210
g14
I1
sg83
Nsg154
g141
sg84
Nsg155
(F0.05555555555555555
I0
tp211
sg58
g59
sg41
(dp212
I139769028080016
g206
ssbsg41
(dp213
sg58
g59
sbsI139769028222864
g159
sI139769028219472
g0
(g68
g2
Ntp214
Rp215
(dp216
g14
I2
sg72
I2
sg73
g163
sg74
I2
sg75
g0
(g150
g2
Ntp217
Rp218
(dp219
g14
I1
sg83
Nsg154
g141
sg84
Nsg155
(F-0.05555555555555555
I0
tp220
sg58
g59
sg41
(dp221
I139769028219472
g215
ssbsg41
(dp222
sg58
g59
sbsI139769023452944
g0
(g68
g2
Ntp223
Rp224
(dp225
g14
I2
sg72
I2
sg73
g163
sg74
I2
sg75
g0
(g150
g2
Ntp226
Rp227
(dp228
g14
I1
sg83
Nsg154
g141
sg84
Nsg155
(F-0.05555555555555555
I0
tp229
sg58
g59
sg41
(dp230
I139769023452944
g224
ssbsg41
(dp231
sg58
g59
sbssg58
g59
sbsg74
I2
sg75
g152
sg41
(dp232
sg58
g59
sbssbsI139769028127824
g0
(g150
g2
Ntp233
Rp234
(dp235
g14
I1
sg83
Nsg154
g141
sg84
Nsg155
(I0
F0.05555555555555555
tp236
sg58
g59
sg41
(dp237
I139769028128336
g0
(g68
g2
Ntp238
Rp239
(dp240
g14
I2
sg72
I2
sg73
g0
(g161
g2
Ntp241
Rp242
(dp243
g14
I2
sg165
g81
sg166
g70
sg167
Nsg41
(dp244
I139769028222160
g0
(g68
g2
Ntp245
Rp246
(dp247
g14
I2
sg72
I2
sg73
g242
sg74
I2
sg75
g0
(g150
g2
Ntp248
Rp249
(dp250
g14
I1
sg83
Nsg154
g141
sg84
Nsg155
(I0
F-0.05555555555555555
tp251
sg58
g59
sg41
(dp252
I139769028222160
g246
ssbsg41
(dp253
sg58
g59
sbsI139769028128016
g0
(g68
g2
Ntp254
Rp255
(dp256
g14
I2
sg72
I2
sg73
g242
sg74
I2
sg75
g0
(g150
g2
Ntp257
Rp258
(dp259
g14
I1
sg83
Nsg154
g141
sg84
Nsg155
(I0
F-0.05555555555555555
tp260
sg58
g59
sg41
(dp261
I139769028128016
g255
ssbsg41
(dp262
sg58
g59
sbsI139769028182544
g0
(g68
g2
Ntp263
Rp264
(dp265
g14
I2
sg72
I2
sg73
g242
sg74
I2
sg75
g0
(g150
g2
Ntp266
Rp267
(dp268
g14
I1
sg83
Nsg154
g141
sg84
Nsg155
(I0
F0.05555555555555555
tp269
sg58
g59
sg41
(dp270
I139769028182544
g264
ssbsg41
(dp271
sg58
g59
sbsI139769028128336
g239
sI139769028222416
g0
(g68
g2
Ntp272
Rp273
(dp274
g14
I2
sg72
I2
sg73
g242
sg74
I2
sg75
g0
(g150
g2
Ntp275
Rp276
(dp277
g14
I1
sg83
Nsg154
g141
sg84
Nsg155
(I0
F0.05555555555555555
tp278
sg58
g59
sg41
(dp279
I139769028222416
g273
ssbsg41
(dp280
sg58
g59
sbsI139769028184592
g0
(g68
g2
Ntp281
Rp282
(dp283
g14
I2
sg72
I2
sg73
g242
sg74
I2
sg75
g0
(g150
g2
Ntp284
Rp285
(dp286
g14
I1
sg83
Nsg154
g141
sg84
Nsg155
(I0
F-0.05555555555555555
tp287
sg58
g59
sg41
(dp288
I139769028184592
g282
ssbsg41
(dp289
sg58
g59
sbsI139769028083280
g0
(g68
g2
Ntp290
Rp291
(dp292
g14
I2
sg72
I2
sg73
g242
sg74
I2
sg75
g0
(g150
g2
Ntp293
Rp294
(dp295
g14
I1
sg83
Nsg154
g141
sg84
Nsg155
(I0
F-0.05555555555555555
tp296
sg58
g59
sg41
(dp297
I139769028083280
g291
ssbsg41
(dp298
sg58
g59
sbsI139769028080336
g0
(g68
g2
Ntp299
Rp300
(dp301
g14
I2
sg72
I2
sg73
g242
sg74
I2
sg75
g0
(g150
g2
Ntp302
Rp303
(dp304
g14
I1
sg83
Nsg154
g141
sg84
Nsg155
(I0
F0.05555555555555555
tp305
sg58
g59
sg41
(dp306
I139769028080336
g300
ssbsg41
(dp307
sg58
g59
sbssg58
g59
sbsg74
I2
sg75
g234
sg41
(dp308
sg58
g59
sbssbsI139769028127696
g258
sI139769023454224
g0
(g150
g2
Ntp309
Rp310
(dp311
g14
I1
sg83
Nsg154
g141
sg84
Nsg155
(F0.0
F0.06944444444444445
tp312
sg58
g59
sg41
(dp313
I139769023454672
g0
(g68
g2
Ntp314
Rp315
(dp316
g14
I1
sg72
I2
sg73
g81
sg74
I2
sg75
g310
sg41
(dp317
sg58
g59
sbsI139769023454736
g0
(g68
g2
Ntp318
Rp319
(dp320
g14
I1
sg72
I2
sg73
g81
sg74
I2
sg75
g310
sg41
(dp321
sg58
g59
sbsI139769023454800
g0
(g68
g2
Ntp322
Rp323
(dp324
g14
I1
sg72
I2
sg73
g81
sg74
I2
sg75
g310
sg41
(dp325
sg58
g59
sbssbsI139769023451280
g200
sI139769028218960
g218
sI139769028081616
g182
sI139769028222096
g249
sI139769028079952
g209
sI139769023453136
g191
sI139769028082704
g294
sI139769028081808
g303
sI139769028222352
g276
sI139769028219216
g173
sI139769028182608
g267
sI139769084541328
g115
sI139769028184720
g285
sI139769023452880
g227
ssbsg50
g26
(g27
(I0
tp326
g29
tp327
Rp328
(I1
(I2
I2
tp329
g36
I00
S'\x00\x00\x00\x00\x00\x00\x00\x00\x00\x00\x00\x00\x00\x00\x00\x00\x00\x00\x00\x00\x00\x00\x84@\x00\x00\x00\x00\x00\x00~@'
p330
tp331
bsg41
(dp332
I139769084993232
g112
ssg58
g59
sbsg41
(dp333
I139769199710544
g87
ssg58
g59
sbsg50
Nsg41
(dp334
I139769199711184
g81
ssg58
g59
sbsg41
(dp335
I139769028219728
g0
(g68
g2
Ntp336
Rp337
(dp338
g14
I1
sg72
I2
sg73
g0
(g68
g2
Ntp339
Rp340
(dp341
g14
I1
sg72
I2
sg73
g0
(g79
g2
Ntp342
Rp343
(dp344
g14
I1
sg83
Nsg84
Nsg85
g0
(g21
g2
Ntp345
Rp346
(dp347
g14
I1
sg25
g26
(g27
(I0
tp348
g29
tp349
Rp350
(I1
(I2
tp351
g36
I00
S'H\xaf\xbc\x9a\xf2\xd7z>H\xaf\xbc\x9a\xf2\xd7z>'
p352
tp353
bsg41
(dp354
I139769028220944
g343
ssg43
g26
(g27
(I0
tp355
g29
tp356
Rp357
(I1
(I2
I2
tp358
g36
I00
S'\x00\x00\x00\x00\x00\x00\x00\x00\x00\x00\x00\x00\x00\x00\x00\x00\x00\x00\x00\x00\x00\x00\xf0?\x00\x00\x00\x00\x00\x00\xf0?'
p359
tp360
bsg50
g26
(g27
(I0
tp361
g29
tp362
Rp363
(I1
(I2
I2
tp364
g36
I00
S'\x00\x00\x00\x00\x00\x00\x00\x00\x00\x00\x00\x00\x00\x00\x00\x00\x00\x00\x00\x00\x00\x00\xf0?\x00\x00\x00\x00\x00\x00\xf0?'
p365
tp366
bsg57
I01
sg58
g59
sbsg41
(dp367
I139769028219664
g340
ssg58
g59
sbsg74
I2
sg75
g0
(g139
g2
Ntp368
Rp369
(dp370
g14
I2
sg84
Nsg83
g26
(g27
(I0
tp371
g29
tp372
Rp373
(I1
(I3
I3
tp374
g36
I00
S'\x00\x00\x00\x00\x00\x00\xf0?\x00\x00\x00\x00\x00\x00\x00\x00\x00\x00\x00\x00\x00\x00\x00\x00\x00\x00\x00\x00\x00\x00\x00\x00\x00\x00\x00\x00\x00\x00\xf0?\x00\x00\x00\x00\x00\x00\x00\x00\x00\x00\x00\x00\x00\x00\x00\x00\x00\x00\x00\x00\x00\x00\x00\x00\x00\x00\x00\x00\x00\x00\xf0?'
p375
tp376
bsg58
g59
sg41
(dp377
I139769028219664
g340
ssbsg41
(dp378
I139769028219728
g337
ssg58
g59
sbsg74
I2
sg75
g81
sg41
(dp379
I139769028219856
g0
(g16
g2
Ntp380
Rp381
(dp382
g14
I1
sg20
g0
(g21
g2
Ntp383
Rp384
(dp385
g14
I1
sg25
g26
(g27
(I0
tp386
g29
tp387
Rp388
(I1
(I2
tp389
g36
I00
S'H\xaf\xbc\x9a\xf2\xd7z>H\xaf\xbc\x9a\xf2\xd7z>'
p390
tp391
bsg41
(dp392
I139769028219856
g381
ssg43
g26
(g27
(I0
tp393
g29
tp394
Rp395
(I1
(I2
I2
tp396
g36
I00
S'\x00\x00\x00\x00\x00\x00\x00\x00\x00\x00\x00\x00\x00\x00\x00\x00\x00\x00\x00\x00\x00\x00\xf0?\x00\x00\x00\x00\x00\x00\xf0?'
p397
tp398
bsg50
g26
(g27
(I0
tp399
g29
tp400
Rp401
(I1
(I2
I2
tp402
g36
I00
S'\x00\x00\x00\x00\x00\x00\x00\x00\x00\x00\x00\x00\x00\x00\x00\x00\x00\x00\x00\x00\x00\x00\xf0?\x00\x00\x00\x00\x00\x00\xf0?'
p403
tp404
bsg57
I01
sg58
g59
sbsg60
g337
sg50
Nsg41
(dp405
sg58
g59
sbssg58
g59
sbsI139769028125776
g0
(g68
g2
Ntp406
Rp407
(dp408
g14
I1
sg72
I2
sg73
g0
(g68
g2
Ntp409
Rp410
(dp411
g14
I1
sg72
I2
sg73
g0
(g79
g2
Ntp412
Rp413
(dp414
g14
I1
sg83
Nsg84
Nsg85
g0
(g21
g2
Ntp415
Rp416
(dp417
g14
I1
sg25
g26
(g27
(I0
tp418
g29
tp419
Rp420
(I1
(I2
tp421
g36
I00
S'H\xaf\xbc\x9a\xf2\xd7z>H\xaf\xbc\x9a\xf2\xd7z>'
p422
tp423
bsg41
(dp424
I139769023509712
g413
ssg43
g26
(g27
(I0
tp425
g29
tp426
Rp427
(I1
(I2
I2
tp428
g36
I00
S'\x00\x00\x00\x00\x00\x00\x00\x00\x00\x00\x00\x00\x00\x00\x00\x00\x00\x00\x00\x00\x00\x00\xf0?\x00\x00\x00\x00\x00\x00\xf0?'
p429
tp430
bsg50
g26
(g27
(I0
tp431
g29
tp432
Rp433
(I1
(I2
I2
tp434
g36
I00
S'\x00\x00\x00\x00\x00\x00\x00\x00\x00\x00\x00\x00\x00\x00\x00\x00\x00\x00\x00\x00\x00\x00\xf0?\x00\x00\x00\x00\x00\x00\xf0?'
p435
tp436
bsg57
I01
sg58
g59
sbsg41
(dp437
I139769028022864
g410
ssg58
g59
sbsg74
I2
sg75
g0
(g139
g2
Ntp438
Rp439
(dp440
g14
I2
sg84
Nsg83
g26
(g27
(I0
tp441
g29
tp442
Rp443
(I1
(I3
I3
tp444
g36
I00
S'\x00\x00\x00\x00\x00\x00\xf0?\x00\x00\x00\x00\x00\x00\x00\x00\x00\x00\x00\x00\x00\x00\x00\x00\x00\x00\x00\x00\x00\x00\x00\x00\x00\x00\x00\x00\x00\x00\xf0?\x00\x00\x00\x00\x00\x00\x00\x00\x00\x00\x00\x00\x00\x00\x00\x00\x00\x00\x00\x00\x00\x00\x00\x00\x00\x00\x00\x00\x00\x00\xf0?'
p445
tp446
bsg58
g59
sg41
(dp447
I139769028022864
g410
ssbsg41
(dp448
I139769028125776
g407
ssg58
g59
sbsg74
I2
sg75
g81
sg41
(dp449
I139769027962064
g0
(g16
g2
Ntp450
Rp451
(dp452
g14
I1
sg20
g0
(g21
g2
Ntp453
Rp454
(dp455
g14
I1
sg25
g26
(g27
(I0
tp456
g29
tp457
Rp458
(I1
(I2
tp459
g36
I00
S'H\xaf\xbc\x9a\xf2\xd7z>H\xaf\xbc\x9a\xf2\xd7z>'
p460
tp461
bsg41
(dp462
I139769027962064
g451
ssg43
g26
(g27
(I0
tp463
g29
tp464
Rp465
(I1
(I2
I2
tp466
g36
I00
S'\x00\x00\x00\x00\x00\x00\x00\x00\x00\x00\x00\x00\x00\x00\x00\x00\x00\x00\x00\x00\x00\x00\xf0?\x00\x00\x00\x00\x00\x00\xf0?'
p467
tp468
bsg50
g26
(g27
(I0
tp469
g29
tp470
Rp471
(I1
(I2
I2
tp472
g36
I00
S'\x00\x00\x00\x00\x00\x00\x00\x00\x00\x00\x00\x00\x00\x00\x00\x00\x00\x00\x00\x00\x00\x00\xf0?\x00\x00\x00\x00\x00\x00\xf0?'
p473
tp474
bsg57
I01
sg58
g59
sbsg60
g407
sg50
Nsg41
(dp475
sg58
g59
sbssg58
g59
sbsI139769028183184
g0
(g68
g2
Ntp476
Rp477
(dp478
g14
I1
sg72
I2
sg73
g0
(g68
g2
Ntp479
Rp480
(dp481
g14
I1
sg72
I2
sg73
g0
(g79
g2
Ntp482
Rp483
(dp484
g14
I1
sg83
Nsg84
Nsg85
g0
(g21
g2
Ntp485
Rp486
(dp487
g14
I1
sg25
g26
(g27
(I0
tp488
g29
tp489
Rp490
(I1
(I2
tp491
g36
I00
S'H\xaf\xbc\x9a\xf2\xd7z>H\xaf\xbc\x9a\xf2\xd7z>'
p492
tp493
bsg41
(dp494
I139769028183632
g483
ssg43
g26
(g27
(I0
tp495
g29
tp496
Rp497
(I1
(I2
I2
tp498
g36
I00
S'\x00\x00\x00\x00\x00\x00\x00\x00\x00\x00\x00\x00\x00\x00\x00\x00\x00\x00\x00\x00\x00\x00\xf0?\x00\x00\x00\x00\x00\x00\xf0?'
p499
tp500
bsg50
g26
(g27
(I0
tp501
g29
tp502
Rp503
(I1
(I2
I2
tp504
g36
I00
S'\x00\x00\x00\x00\x00\x00\x00\x00\x00\x00\x00\x00\x00\x00\x00\x00\x00\x00\x00\x00\x00\x00\xf0?\x00\x00\x00\x00\x00\x00\xf0?'
p505
tp506
bsg57
I01
sg58
g59
sbsg41
(dp507
I139769028183760
g480
ssg58
g59
sbsg74
I2
sg75
g0
(g139
g2
Ntp508
Rp509
(dp510
g14
I2
sg84
Nsg83
g26
(g27
(I0
tp511
g29
tp512
Rp513
(I1
(I3
I3
tp514
g36
I00
S'\x00\x00\x00\x00\x00\x00\xf0?\x00\x00\x00\x00\x00\x00\x00\x00\x00\x00\x00\x00\x00\x00\x00\x00\x00\x00\x00\x00\x00\x00\x00\x00\x00\x00\x00\x00\x00\x00\xf0?\x00\x00\x00\x00\x00\x00\x00\x00\x00\x00\x00\x00\x00\x00\x00\x00\x00\x00\x00\x00\x00\x00\x00\x00\x00\x00\x00\x00\x00\x00\xf0?'
p515
tp516
bsg58
g59
sg41
(dp517
I139769028183760
g480
ssbsg41
(dp518
I139769028183184
g477
ssg58
g59
sbsg74
I2
sg75
g81
sg41
(dp519
I139769028183248
g0
(g16
g2
Ntp520
Rp521
(dp522
g14
I1
sg20
g0
(g21
g2
Ntp523
Rp524
(dp525
g14
I1
sg25
g26
(g27
(I0
tp526
g29
tp527
Rp528
(I1
(I2
tp529
g36
I00
S'H\xaf\xbc\x9a\xf2\xd7z>H\xaf\xbc\x9a\xf2\xd7z>'
p530
tp531
bsg41
(dp532
I139769028183248
g521
ssg43
g26
(g27
(I0
tp533
g29
tp534
Rp535
(I1
(I2
I2
tp536
g36
I00
S'\x00\x00\x00\x00\x00\x00\x00\x00\x00\x00\x00\x00\x00\x00\x00\x00\x00\x00\x00\x00\x00\x00\xf0?\x00\x00\x00\x00\x00\x00\xf0?'
p537
tp538
bsg50
g26
(g27
(I0
tp539
g29
tp540
Rp541
(I1
(I2
I2
tp542
g36
I00
S'\x00\x00\x00\x00\x00\x00\x00\x00\x00\x00\x00\x00\x00\x00\x00\x00\x00\x00\x00\x00\x00\x00\xf0?\x00\x00\x00\x00\x00\x00\xf0?'
p543
tp544
bsg57
I01
sg58
g59
sbsg60
g477
sg50
Nsg41
(dp545
sg58
g59
sbssg58
g59
sbsI139769023454800
g323
sI139769199714192
g0
(cmatplotlib.transforms
BlendedAffine2D
p546
g2
Ntp547
Rp548
(dp549
g14
I1
sg83
Nsg165
g0
(cmatplotlib.transforms
IdentityTransform
p550
g2
Ntp551
Rp552
(dp553
g14
I1
sg84
Nsg58
g59
sg41
(dp554
I139769199714192
g548
ssbsg166
g81
sg84
Nsg58
g59
sg41
(dp555
sbsI139769199711632
g77
sI139769199711824
g242
sI139769199711888
g163
sI139769023572240
g0
(g68
g2
Ntp556
Rp557
(dp558
g14
I1
sg72
I2
sg73
g0
(g68
g2
Ntp559
Rp560
(dp561
g14
I1
sg72
I2
sg73
g0
(g79
g2
Ntp562
Rp563
(dp564
g14
I1
sg83
Nsg84
Nsg85
g0
(g21
g2
Ntp565
Rp566
(dp567
g14
I1
sg25
g26
(g27
(I0
tp568
g29
tp569
Rp570
(I1
(I2
tp571
g36
I00
S'H\xaf\xbc\x9a\xf2\xd7z>H\xaf\xbc\x9a\xf2\xd7z>'
p572
tp573
bsg41
(dp574
I139769023572048
g563
ssg43
g26
(g27
(I0
tp575
g29
tp576
Rp577
(I1
(I2
I2
tp578
g36
I00
S'\x00\x00\x00\x00\x00\x00\x00\x00\x00\x00\x00\x00\x00\x00\x00\x00\x00\x00\x00\x00\x00\x00\xf0?\x00\x00\x00\x00\x00\x00\xf0?'
p579
tp580
bsg50
g26
(g27
(I0
tp581
g29
tp582
Rp583
(I1
(I2
I2
tp584
g36
I00
S'\x00\x00\x00\x00\x00\x00\x00\x00\x00\x00\x00\x00\x00\x00\x00\x00\x00\x00\x00\x00\x00\x00\xf0?\x00\x00\x00\x00\x00\x00\xf0?'
p585
tp586
bsg57
I01
sg58
g59
sbsg41
(dp587
I139769023572176
g560
ssg58
g59
sbsg74
I2
sg75
g0
(g139
g2
Ntp588
Rp589
(dp590
g14
I2
sg84
Nsg83
g26
(g27
(I0
tp591
g29
tp592
Rp593
(I1
(I3
I3
tp594
g36
I00
S'\x00\x00\x00\x00\x00\x00\xf0?\x00\x00\x00\x00\x00\x00\x00\x00\x00\x00\x00\x00\x00\x00\x00\x00\x00\x00\x00\x00\x00\x00\x00\x00\x00\x00\x00\x00\x00\x00\xf0?\x00\x00\x00\x00\x00\x00\x00\x00\x00\x00\x00\x00\x00\x00\x00\x00\x00\x00\x00\x00\x00\x00\x00\x00\x00\x00\x00\x00\x00\x00\xf0?'
p595
tp596
bsg58
g59
sg41
(dp597
I139769023572176
g560
ssbsg41
(dp598
I139769023572240
g557
ssg58
g59
sbsg74
I2
sg75
g81
sg41
(dp599
I139769023572368
g0
(g16
g2
Ntp600
Rp601
(dp602
g14
I1
sg20
g0
(g21
g2
Ntp603
Rp604
(dp605
g14
I1
sg25
g26
(g27
(I0
tp606
g29
tp607
Rp608
(I1
(I2
tp609
g36
I00
S'H\xaf\xbc\x9a\xf2\xd7z>H\xaf\xbc\x9a\xf2\xd7z>'
p610
tp611
bsg41
(dp612
I139769023572368
g601
ssg43
g26
(g27
(I0
tp613
g29
tp614
Rp615
(I1
(I2
I2
tp616
g36
I00
S'\x00\x00\x00\x00\x00\x00\x00\x00\x00\x00\x00\x00\x00\x00\x00\x00\x00\x00\x00\x00\x00\x00\xf0?\x00\x00\x00\x00\x00\x00\xf0?'
p617
tp618
bsg50
g26
(g27
(I0
tp619
g29
tp620
Rp621
(I1
(I2
I2
tp622
g36
I00
S'\x00\x00\x00\x00\x00\x00\x00\x00\x00\x00\x00\x00\x00\x00\x00\x00\x00\x00\x00\x00\x00\x00\xf0?\x00\x00\x00\x00\x00\x00\xf0?'
p623
tp624
bsg57
I01
sg58
g59
sbsg60
g557
sg50
Nsg41
(dp625
sg58
g59
sbssg58
g59
sbsI139769028127184
g0
(g68
g2
Ntp626
Rp627
(dp628
g14
I1
sg72
I2
sg73
g0
(g68
g2
Ntp629
Rp630
(dp631
g14
I1
sg72
I2
sg73
g0
(g79
g2
Ntp632
Rp633
(dp634
g14
I1
sg83
Nsg84
Nsg85
g0
(g21
g2
Ntp635
Rp636
(dp637
g14
I1
sg25
g26
(g27
(I0
tp638
g29
tp639
Rp640
(I1
(I2
tp641
g36
I00
S'H\xaf\xbc\x9a\xf2\xd7z>H\xaf\xbc\x9a\xf2\xd7z>'
p642
tp643
bsg41
(dp644
I139769028127568
g633
ssg43
g26
(g27
(I0
tp645
g29
tp646
Rp647
(I1
(I2
I2
tp648
g36
I00
S'\x00\x00\x00\x00\x00\x00\x00\x00\x00\x00\x00\x00\x00\x00\x00\x00\x00\x00\x00\x00\x00\x00\xf0?\x00\x00\x00\x00\x00\x00\xf0?'
p649
tp650
bsg50
g26
(g27
(I0
tp651
g29
tp652
Rp653
(I1
(I2
I2
tp654
g36
I00
S'\x00\x00\x00\x00\x00\x00\x00\x00\x00\x00\x00\x00\x00\x00\x00\x00\x00\x00\x00\x00\x00\x00\xf0?\x00\x00\x00\x00\x00\x00\xf0?'
p655
tp656
bsg57
I01
sg58
g59
sbsg41
(dp657
I139769028127632
g630
ssg58
g59
sbsg74
I2
sg75
g0
(g139
g2
Ntp658
Rp659
(dp660
g14
I2
sg84
Nsg83
g26
(g27
(I0
tp661
g29
tp662
Rp663
(I1
(I3
I3
tp664
g36
I00
S'\x00\x00\x00\x00\x00\x00\xf0?\x00\x00\x00\x00\x00\x00\x00\x00\x00\x00\x00\x00\x00\x00\x00\x00\x00\x00\x00\x00\x00\x00\x00\x00\x00\x00\x00\x00\x00\x00\xf0?\x00\x00\x00\x00\x00\x00\x00\x00\x00\x00\x00\x00\x00\x00\x00\x00\x00\x00\x00\x00\x00\x00\x00\x00\x00\x00\x00\x00\x00\x00\xf0?'
p665
tp666
bsg58
g59
sg41
(dp667
I139769028127632
g630
ssbsg41
(dp668
I139769028127184
g627
ssg58
g59
sbsg74
I2
sg75
g81
sg41
(dp669
I139769028127312
g0
(g16
g2
Ntp670
Rp671
(dp672
g14
I1
sg20
g0
(g21
g2
Ntp673
Rp674
(dp675
g14
I1
sg25
g26
(g27
(I0
tp676
g29
tp677
Rp678
(I1
(I2
tp679
g36
I00
S'H\xaf\xbc\x9a\xf2\xd7z>H\xaf\xbc\x9a\xf2\xd7z>'
p680
tp681
bsg41
(dp682
I139769028127312
g671
ssg43
g26
(g27
(I0
tp683
g29
tp684
Rp685
(I1
(I2
I2
tp686
g36
I00
S'\x00\x00\x00\x00\x00\x00\x00\x00\x00\x00\x00\x00\x00\x00\x00\x00\x00\x00\x00\x00\x00\x00\xf0?\x00\x00\x00\x00\x00\x00\xf0?'
p687
tp688
bsg50
g26
(g27
(I0
tp689
g29
tp690
Rp691
(I1
(I2
I2
tp692
g36
I00
S'\x00\x00\x00\x00\x00\x00\x00\x00\x00\x00\x00\x00\x00\x00\x00\x00\x00\x00\x00\x00\x00\x00\xf0?\x00\x00\x00\x00\x00\x00\xf0?'
p693
tp694
bsg57
I01
sg58
g59
sbsg60
g627
sg50
Nsg41
(dp695
sg58
g59
sbssg58
g59
sbsI139769028126032
g0
(g68
g2
Ntp696
Rp697
(dp698
g14
I1
sg72
I2
sg73
g0
(g68
g2
Ntp699
Rp700
(dp701
g14
I1
sg72
I2
sg73
g0
(g79
g2
Ntp702
Rp703
(dp704
g14
I1
sg83
Nsg84
Nsg85
g0
(g21
g2
Ntp705
Rp706
(dp707
g14
I1
sg25
g26
(g27
(I0
tp708
g29
tp709
Rp710
(I1
(I2
tp711
g36
I00
S'H\xaf\xbc\x9a\xf2\xd7z>H\xaf\xbc\x9a\xf2\xd7z>'
p712
tp713
bsg41
(dp714
I139769028126672
g703
ssg43
g26
(g27
(I0
tp715
g29
tp716
Rp717
(I1
(I2
I2
tp718
g36
I00
S'\x00\x00\x00\x00\x00\x00\x00\x00\x00\x00\x00\x00\x00\x00\x00\x00\x00\x00\x00\x00\x00\x00\xf0?\x00\x00\x00\x00\x00\x00\xf0?'
p719
tp720
bsg50
g26
(g27
(I0
tp721
g29
tp722
Rp723
(I1
(I2
I2
tp724
g36
I00
S'\x00\x00\x00\x00\x00\x00\x00\x00\x00\x00\x00\x00\x00\x00\x00\x00\x00\x00\x00\x00\x00\x00\xf0?\x00\x00\x00\x00\x00\x00\xf0?'
p725
tp726
bsg57
I01
sg58
g59
sbsg41
(dp727
I139769028126736
g700
ssg58
g59
sbsg74
I2
sg75
g0
(g139
g2
Ntp728
Rp729
(dp730
g14
I2
sg84
Nsg83
g26
(g27
(I0
tp731
g29
tp732
Rp733
(I1
(I3
I3
tp734
g36
I00
S'\x00\x00\x00\x00\x00\x00\xf0?\x00\x00\x00\x00\x00\x00\x00\x00\x00\x00\x00\x00\x00\x00\x00\x00\x00\x00\x00\x00\x00\x00\x00\x00\x00\x00\x00\x00\x00\x00\xf0?\x00\x00\x00\x00\x00\x00\x00\x00\x00\x00\x00\x00\x00\x00\x00\x00\x00\x00\x00\x00\x00\x00\x00\x00\x00\x00\x00\x00\x00\x00\xf0?'
p735
tp736
bsg58
g59
sg41
(dp737
I139769028126736
g700
ssbsg41
(dp738
I139769028126032
g697
ssg58
g59
sbsg74
I2
sg75
g81
sg41
(dp739
I139769028126416
g0
(g16
g2
Ntp740
Rp741
(dp742
g14
I1
sg20
g0
(g21
g2
Ntp743
Rp744
(dp745
g14
I1
sg25
g26
(g27
(I0
tp746
g29
tp747
Rp748
(I1
(I2
tp749
g36
I00
S'H\xaf\xbc\x9a\xf2\xd7z>H\xaf\xbc\x9a\xf2\xd7z>'
p750
tp751
bsg41
(dp752
I139769028126416
g741
ssg43
g26
(g27
(I0
tp753
g29
tp754
Rp755
(I1
(I2
I2
tp756
g36
I00
S'\x00\x00\x00\x00\x00\x00\x00\x00\x00\x00\x00\x00\x00\x00\x00\x00\x00\x00\x00\x00\x00\x00\xf0?\x00\x00\x00\x00\x00\x00\xf0?'
p757
tp758
bsg50
g26
(g27
(I0
tp759
g29
tp760
Rp761
(I1
(I2
I2
tp762
g36
I00
S'\x00\x00\x00\x00\x00\x00\x00\x00\x00\x00\x00\x00\x00\x00\x00\x00\x00\x00\x00\x00\x00\x00\xf0?\x00\x00\x00\x00\x00\x00\xf0?'
p763
tp764
bsg57
I01
sg58
g59
sbsg60
g697
sg50
Nsg41
(dp765
sg58
g59
sbssg58
g59
sbsI139769023511248
g0
(g68
g2
Ntp766
Rp767
(dp768
g14
I1
sg72
I2
sg73
g0
(g68
g2
Ntp769
Rp770
(dp771
g14
I1
sg72
I2
sg73
g0
(g79
g2
Ntp772
Rp773
(dp774
g14
I1
sg83
Nsg84
Nsg85
g0
(g21
g2
Ntp775
Rp776
(dp777
g14
I1
sg25
g26
(g27
(I0
tp778
g29
tp779
Rp780
(I1
(I2
tp781
g36
I00
S'H\xaf\xbc\x9a\xf2\xd7z>H\xaf\xbc\x9a\xf2\xd7z>'
p782
tp783
bsg41
(dp784
I139769023511056
g773
ssg43
g26
(g27
(I0
tp785
g29
tp786
Rp787
(I1
(I2
I2
tp788
g36
I00
S'\x00\x00\x00\x00\x00\x00\x00\x00\x00\x00\x00\x00\x00\x00\x00\x00\x00\x00\x00\x00\x00\x00\xf0?\x00\x00\x00\x00\x00\x00\xf0?'
p789
tp790
bsg50
g26
(g27
(I0
tp791
g29
tp792
Rp793
(I1
(I2
I2
tp794
g36
I00
S'\x00\x00\x00\x00\x00\x00\x00\x00\x00\x00\x00\x00\x00\x00\x00\x00\x00\x00\x00\x00\x00\x00\xf0?\x00\x00\x00\x00\x00\x00\xf0?'
p795
tp796
bsg57
I01
sg58
g59
sbsg41
(dp797
I139769023511184
g770
ssg58
g59
sbsg74
I2
sg75
g0
(g139
g2
Ntp798
Rp799
(dp800
g14
I2
sg84
Nsg83
g26
(g27
(I0
tp801
g29
tp802
Rp803
(I1
(I3
I3
tp804
g36
I00
S'\x00\x00\x00\x00\x00\x00\xf0?\x00\x00\x00\x00\x00\x00\x00\x00\x00\x00\x00\x00\x00\x00\x00\x00\x00\x00\x00\x00\x00\x00\x00\x00\x00\x00\x00\x00\x00\x00\xf0?\x00\x00\x00\x00\x00\x00\x00\x00\x00\x00\x00\x00\x00\x00\x00\x00\x00\x00\x00\x00\x00\x00\x00\x00\x00\x00\x00\x00\x00\x00\xf0?'
p805
tp806
bsg58
g59
sg41
(dp807
I139769023511184
g770
ssbsg41
(dp808
I139769023511248
g767
ssg58
g59
sbsg74
I2
sg75
g81
sg41
(dp809
I139769023511376
g0
(g16
g2
Ntp810
Rp811
(dp812
g14
I1
sg20
g0
(g21
g2
Ntp813
Rp814
(dp815
g14
I1
sg25
g26
(g27
(I0
tp816
g29
tp817
Rp818
(I1
(I2
tp819
g36
I00
S'H\xaf\xbc\x9a\xf2\xd7z>H\xaf\xbc\x9a\xf2\xd7z>'
p820
tp821
bsg41
(dp822
I139769023511376
g811
ssg43
g26
(g27
(I0
tp823
g29
tp824
Rp825
(I1
(I2
I2
tp826
g36
I00
S'\x00\x00\x00\x00\x00\x00\x00\x00\x00\x00\x00\x00\x00\x00\x00\x00\x00\x00\x00\x00\x00\x00\xf0?\x00\x00\x00\x00\x00\x00\xf0?'
p827
tp828
bsg50
g26
(g27
(I0
tp829
g29
tp830
Rp831
(I1
(I2
I2
tp832
g36
I00
S'\x00\x00\x00\x00\x00\x00\x00\x00\x00\x00\x00\x00\x00\x00\x00\x00\x00\x00\x00\x00\x00\x00\xf0?\x00\x00\x00\x00\x00\x00\xf0?'
p833
tp834
bsg57
I01
sg58
g59
sbsg60
g767
sg50
Nsg41
(dp835
sg58
g59
sbssg58
g59
sbsI139769028185104
g0
(g68
g2
Ntp836
Rp837
(dp838
g14
I1
sg72
I2
sg73
g0
(g68
g2
Ntp839
Rp840
(dp841
g14
I1
sg72
I2
sg73
g0
(g79
g2
Ntp842
Rp843
(dp844
g14
I1
sg83
Nsg84
Nsg85
g0
(g21
g2
Ntp845
Rp846
(dp847
g14
I1
sg25
g26
(g27
(I0
tp848
g29
tp849
Rp850
(I1
(I2
tp851
g36
I00
S'H\xaf\xbc\x9a\xf2\xd7z>H\xaf\xbc\x9a\xf2\xd7z>'
p852
tp853
bsg41
(dp854
I139769028185424
g843
ssg43
g26
(g27
(I0
tp855
g29
tp856
Rp857
(I1
(I2
I2
tp858
g36
I00
S'\x00\x00\x00\x00\x00\x00\x00\x00\x00\x00\x00\x00\x00\x00\x00\x00\x00\x00\x00\x00\x00\x00\xf0?\x00\x00\x00\x00\x00\x00\xf0?'
p859
tp860
bsg50
g26
(g27
(I0
tp861
g29
tp862
Rp863
(I1
(I2
I2
tp864
g36
I00
S'\x00\x00\x00\x00\x00\x00\x00\x00\x00\x00\x00\x00\x00\x00\x00\x00\x00\x00\x00\x00\x00\x00\xf0?\x00\x00\x00\x00\x00\x00\xf0?'
p865
tp866
bsg57
I01
sg58
g59
sbsg41
(dp867
I139769028185552
g840
ssg58
g59
sbsg74
I2
sg75
g0
(g139
g2
Ntp868
Rp869
(dp870
g14
I2
sg84
Nsg83
g26
(g27
(I0
tp871
g29
tp872
Rp873
(I1
(I3
I3
tp874
g36
I00
S'\x00\x00\x00\x00\x00\x00\xf0?\x00\x00\x00\x00\x00\x00\x00\x00\x00\x00\x00\x00\x00\x00\x00\x00\x00\x00\x00\x00\x00\x00\x00\x00\x00\x00\x00\x00\x00\x00\xf0?\x00\x00\x00\x00\x00\x00\x00\x00\x00\x00\x00\x00\x00\x00\x00\x00\x00\x00\x00\x00\x00\x00\x00\x00\x00\x00\x00\x00\x00\x00\xf0?'
p875
tp876
bsg58
g59
sg41
(dp877
I139769028185552
g840
ssbsg41
(dp878
I139769028185104
g837
ssg58
g59
sbsg74
I2
sg75
g81
sg41
(dp879
I139769028185168
g0
(g16
g2
Ntp880
Rp881
(dp882
g14
I1
sg20
g0
(g21
g2
Ntp883
Rp884
(dp885
g14
I1
sg25
g26
(g27
(I0
tp886
g29
tp887
Rp888
(I1
(I2
tp889
g36
I00
S'H\xaf\xbc\x9a\xf2\xd7z>H\xaf\xbc\x9a\xf2\xd7z>'
p890
tp891
bsg41
(dp892
I139769028185168
g881
ssg43
g26
(g27
(I0
tp893
g29
tp894
Rp895
(I1
(I2
I2
tp896
g36
I00
S'\x00\x00\x00\x00\x00\x00\x00\x00\x00\x00\x00\x00\x00\x00\x00\x00\x00\x00\x00\x00\x00\x00\xf0?\x00\x00\x00\x00\x00\x00\xf0?'
p897
tp898
bsg50
g26
(g27
(I0
tp899
g29
tp900
Rp901
(I1
(I2
I2
tp902
g36
I00
S'\x00\x00\x00\x00\x00\x00\x00\x00\x00\x00\x00\x00\x00\x00\x00\x00\x00\x00\x00\x00\x00\x00\xf0?\x00\x00\x00\x00\x00\x00\xf0?'
p903
tp904
bsg57
I01
sg58
g59
sbsg60
g837
sg50
Nsg41
(dp905
sg58
g59
sbssg58
g59
sbsI139769023573136
g0
(g68
g2
Ntp906
Rp907
(dp908
g14
I1
sg72
I2
sg73
g0
(g68
g2
Ntp909
Rp910
(dp911
g14
I1
sg72
I2
sg73
g0
(g79
g2
Ntp912
Rp913
(dp914
g14
I1
sg83
Nsg84
Nsg85
g0
(g21
g2
Ntp915
Rp916
(dp917
g14
I1
sg25
g26
(g27
(I0
tp918
g29
tp919
Rp920
(I1
(I2
tp921
g36
I00
S'H\xaf\xbc\x9a\xf2\xd7z>H\xaf\xbc\x9a\xf2\xd7z>'
p922
tp923
bsg41
(dp924
I139769023572944
g913
ssg43
g26
(g27
(I0
tp925
g29
tp926
Rp927
(I1
(I2
I2
tp928
g36
I00
S'\x00\x00\x00\x00\x00\x00\x00\x00\x00\x00\x00\x00\x00\x00\x00\x00\x00\x00\x00\x00\x00\x00\xf0?\x00\x00\x00\x00\x00\x00\xf0?'
p929
tp930
bsg50
g26
(g27
(I0
tp931
g29
tp932
Rp933
(I1
(I2
I2
tp934
g36
I00
S'\x00\x00\x00\x00\x00\x00\x00\x00\x00\x00\x00\x00\x00\x00\x00\x00\x00\x00\x00\x00\x00\x00\xf0?\x00\x00\x00\x00\x00\x00\xf0?'
p935
tp936
bsg57
I01
sg58
g59
sbsg41
(dp937
I139769023573072
g910
ssg58
g59
sbsg74
I2
sg75
g0
(g139
g2
Ntp938
Rp939
(dp940
g14
I2
sg84
Nsg83
g26
(g27
(I0
tp941
g29
tp942
Rp943
(I1
(I3
I3
tp944
g36
I00
S'\x00\x00\x00\x00\x00\x00\xf0?\x00\x00\x00\x00\x00\x00\x00\x00\x00\x00\x00\x00\x00\x00\x00\x00\x00\x00\x00\x00\x00\x00\x00\x00\x00\x00\x00\x00\x00\x00\xf0?\x00\x00\x00\x00\x00\x00\x00\x00\x00\x00\x00\x00\x00\x00\x00\x00\x00\x00\x00\x00\x00\x00\x00\x00\x00\x00\x00\x00\x00\x00\xf0?'
p945
tp946
bsg58
g59
sg41
(dp947
I139769023573072
g910
ssbsg41
(dp948
I139769023573136
g907
ssg58
g59
sbsg74
I2
sg75
g81
sg41
(dp949
I139769023573264
g0
(g16
g2
Ntp950
Rp951
(dp952
g14
I1
sg20
g0
(g21
g2
Ntp953
Rp954
(dp955
g14
I1
sg25
g26
(g27
(I0
tp956
g29
tp957
Rp958
(I1
(I2
tp959
g36
I00
S'H\xaf\xbc\x9a\xf2\xd7z>H\xaf\xbc\x9a\xf2\xd7z>'
p960
tp961
bsg41
(dp962
I139769023573264
g951
ssg43
g26
(g27
(I0
tp963
g29
tp964
Rp965
(I1
(I2
I2
tp966
g36
I00
S'\x00\x00\x00\x00\x00\x00\x00\x00\x00\x00\x00\x00\x00\x00\x00\x00\x00\x00\x00\x00\x00\x00\xf0?\x00\x00\x00\x00\x00\x00\xf0?'
p967
tp968
bsg50
g26
(g27
(I0
tp969
g29
tp970
Rp971
(I1
(I2
I2
tp972
g36
I00
S'\x00\x00\x00\x00\x00\x00\x00\x00\x00\x00\x00\x00\x00\x00\x00\x00\x00\x00\x00\x00\x00\x00\xf0?\x00\x00\x00\x00\x00\x00\xf0?'
p973
tp974
bsg57
I01
sg58
g59
sbsg60
g907
sg50
Nsg41
(dp975
sg58
g59
sbssg58
g59
sbsI139769023510352
g0
(g68
g2
Ntp976
Rp977
(dp978
g14
I1
sg72
I2
sg73
g0
(g68
g2
Ntp979
Rp980
(dp981
g14
I1
sg72
I2
sg73
g0
(g79
g2
Ntp982
Rp983
(dp984
g14
I1
sg83
Nsg84
Nsg85
g0
(g21
g2
Ntp985
Rp986
(dp987
g14
I1
sg25
g26
(g27
(I0
tp988
g29
tp989
Rp990
(I1
(I2
tp991
g36
I00
S'H\xaf\xbc\x9a\xf2\xd7z>H\xaf\xbc\x9a\xf2\xd7z>'
p992
tp993
bsg41
(dp994
I139769023510160
g983
ssg43
g26
(g27
(I0
tp995
g29
tp996
Rp997
(I1
(I2
I2
tp998
g36
I00
S'\x00\x00\x00\x00\x00\x00\x00\x00\x00\x00\x00\x00\x00\x00\x00\x00\x00\x00\x00\x00\x00\x00\xf0?\x00\x00\x00\x00\x00\x00\xf0?'
p999
tp1000
bsg50
g26
(g27
(I0
tp1001
g29
tp1002
Rp1003
(I1
(I2
I2
tp1004
g36
I00
S'\x00\x00\x00\x00\x00\x00\x00\x00\x00\x00\x00\x00\x00\x00\x00\x00\x00\x00\x00\x00\x00\x00\xf0?\x00\x00\x00\x00\x00\x00\xf0?'
p1005
tp1006
bsg57
I01
sg58
g59
sbsg41
(dp1007
I139769023510288
g980
ssg58
g59
sbsg74
I2
sg75
g0
(g139
g2
Ntp1008
Rp1009
(dp1010
g14
I2
sg84
Nsg83
g26
(g27
(I0
tp1011
g29
tp1012
Rp1013
(I1
(I3
I3
tp1014
g36
I00
S'\x00\x00\x00\x00\x00\x00\xf0?\x00\x00\x00\x00\x00\x00\x00\x00\x00\x00\x00\x00\x00\x00\x00\x00\x00\x00\x00\x00\x00\x00\x00\x00\x00\x00\x00\x00\x00\x00\xf0?\x00\x00\x00\x00\x00\x00\x00\x00\x00\x00\x00\x00\x00\x00\x00\x00\x00\x00\x00\x00\x00\x00\x00\x00\x00\x00\x00\x00\x00\x00\xf0?'
p1015
tp1016
bsg58
g59
sg41
(dp1017
I139769023510288
g980
ssbsg41
(dp1018
I139769023510352
g977
ssg58
g59
sbsg74
I2
sg75
g81
sg41
(dp1019
I139769023510480
g0
(g16
g2
Ntp1020
Rp1021
(dp1022
g14
I1
sg20
g0
(g21
g2
Ntp1023
Rp1024
(dp1025
g14
I1
sg25
g26
(g27
(I0
tp1026
g29
tp1027
Rp1028
(I1
(I2
tp1029
g36
I00
S'H\xaf\xbc\x9a\xf2\xd7z>H\xaf\xbc\x9a\xf2\xd7z>'
p1030
tp1031
bsg41
(dp1032
I139769023510480
g1021
ssg43
g26
(g27
(I0
tp1033
g29
tp1034
Rp1035
(I1
(I2
I2
tp1036
g36
I00
S'\x00\x00\x00\x00\x00\x00\x00\x00\x00\x00\x00\x00\x00\x00\x00\x00\x00\x00\x00\x00\x00\x00\xf0?\x00\x00\x00\x00\x00\x00\xf0?'
p1037
tp1038
bsg50
g26
(g27
(I0
tp1039
g29
tp1040
Rp1041
(I1
(I2
I2
tp1042
g36
I00
S'\x00\x00\x00\x00\x00\x00\x00\x00\x00\x00\x00\x00\x00\x00\x00\x00\x00\x00\x00\x00\x00\x00\xf0?\x00\x00\x00\x00\x00\x00\xf0?'
p1043
tp1044
bsg57
I01
sg58
g59
sbsg60
g977
sg50
Nsg41
(dp1045
sg58
g59
sbssg58
g59
sbsI139769028126992
g0
(g68
g2
Ntp1046
Rp1047
(dp1048
g14
I1
sg72
I2
sg73
g0
(g68
g2
Ntp1049
Rp1050
(dp1051
g14
I1
sg72
I2
sg73
g0
(g79
g2
Ntp1052
Rp1053
(dp1054
g14
I1
sg83
Nsg84
Nsg85
g0
(g21
g2
Ntp1055
Rp1056
(dp1057
g14
I1
sg25
g26
(g27
(I0
tp1058
g29
tp1059
Rp1060
(I1
(I2
tp1061
g36
I00
S'H\xaf\xbc\x9a\xf2\xd7z>H\xaf\xbc\x9a\xf2\xd7z>'
p1062
tp1063
bsg41
(dp1064
I139769028125072
g1053
ssg43
g26
(g27
(I0
tp1065
g29
tp1066
Rp1067
(I1
(I2
I2
tp1068
g36
I00
S'\x00\x00\x00\x00\x00\x00\x00\x00\x00\x00\x00\x00\x00\x00\x00\x00\x00\x00\x00\x00\x00\x00\xf0?\x00\x00\x00\x00\x00\x00\xf0?'
p1069
tp1070
bsg50
g26
(g27
(I0
tp1071
g29
tp1072
Rp1073
(I1
(I2
I2
tp1074
g36
I00
S'\x00\x00\x00\x00\x00\x00\x00\x00\x00\x00\x00\x00\x00\x00\x00\x00\x00\x00\x00\x00\x00\x00\xf0?\x00\x00\x00\x00\x00\x00\xf0?'
p1075
tp1076
bsg57
I01
sg58
g59
sbsg41
(dp1077
I139769028125904
g1050
ssg58
g59
sbsg74
I2
sg75
g0
(g139
g2
Ntp1078
Rp1079
(dp1080
g14
I2
sg84
Nsg83
g26
(g27
(I0
tp1081
g29
tp1082
Rp1083
(I1
(I3
I3
tp1084
g36
I00
S'\x00\x00\x00\x00\x00\x00\xf0?\x00\x00\x00\x00\x00\x00\x00\x00\x00\x00\x00\x00\x00\x00\x00\x00\x00\x00\x00\x00\x00\x00\x00\x00\x00\x00\x00\x00\x00\x00\xf0?\x00\x00\x00\x00\x00\x00\x00\x00\x00\x00\x00\x00\x00\x00\x00\x00\x00\x00\x00\x00\x00\x00\x00\x00\x00\x00\x00\x00\x00\x00\xf0?'
p1085
tp1086
bsg58
g59
sg41
(dp1087
I139769028125904
g1050
ssbsg41
(dp1088
I139769028126992
g1047
ssg58
g59
sbsg74
I2
sg75
g81
sg41
(dp1089
I139769028128528
g0
(g16
g2
Ntp1090
Rp1091
(dp1092
g14
I1
sg20
g0
(g21
g2
Ntp1093
Rp1094
(dp1095
g14
I1
sg25
g26
(g27
(I0
tp1096
g29
tp1097
Rp1098
(I1
(I2
tp1099
g36
I00
S'H\xaf\xbc\x9a\xf2\xd7z>H\xaf\xbc\x9a\xf2\xd7z>'
p1100
tp1101
bsg41
(dp1102
I139769028128528
g1091
ssg43
g26
(g27
(I0
tp1103
g29
tp1104
Rp1105
(I1
(I2
I2
tp1106
g36
I00
S'\x00\x00\x00\x00\x00\x00\x00\x00\x00\x00\x00\x00\x00\x00\x00\x00\x00\x00\x00\x00\x00\x00\xf0?\x00\x00\x00\x00\x00\x00\xf0?'
p1107
tp1108
bsg50
g26
(g27
(I0
tp1109
g29
tp1110
Rp1111
(I1
(I2
I2
tp1112
g36
I00
S'\x00\x00\x00\x00\x00\x00\x00\x00\x00\x00\x00\x00\x00\x00\x00\x00\x00\x00\x00\x00\x00\x00\xf0?\x00\x00\x00\x00\x00\x00\xf0?'
p1113
tp1114
bsg57
I01
sg58
g59
sbsg60
g1047
sg50
Nsg41
(dp1115
sg58
g59
sbssg58
g59
sbsI139769023454672
g315
sI139769023454736
g319
sI139769023570448
g0
(g68
g2
Ntp1116
Rp1117
(dp1118
g14
I1
sg72
I2
sg73
g0
(g68
g2
Ntp1119
Rp1120
(dp1121
g14
I1
sg72
I2
sg73
g0
(g79
g2
Ntp1122
Rp1123
(dp1124
g14
I1
sg83
Nsg84
Nsg85
g0
(g21
g2
Ntp1125
Rp1126
(dp1127
g14
I1
sg25
g26
(g27
(I0
tp1128
g29
tp1129
Rp1130
(I1
(I2
tp1131
g36
I00
S'H\xaf\xbc\x9a\xf2\xd7z>H\xaf\xbc\x9a\xf2\xd7z>'
p1132
tp1133
bsg41
(dp1134
I139769023570256
g1123
ssg43
g26
(g27
(I0
tp1135
g29
tp1136
Rp1137
(I1
(I2
I2
tp1138
g36
I00
S'\x00\x00\x00\x00\x00\x00\x00\x00\x00\x00\x00\x00\x00\x00\x00\x00\x00\x00\x00\x00\x00\x00\xf0?\x00\x00\x00\x00\x00\x00\xf0?'
p1139
tp1140
bsg50
g26
(g27
(I0
tp1141
g29
tp1142
Rp1143
(I1
(I2
I2
tp1144
g36
I00
S'\x00\x00\x00\x00\x00\x00\x00\x00\x00\x00\x00\x00\x00\x00\x00\x00\x00\x00\x00\x00\x00\x00\xf0?\x00\x00\x00\x00\x00\x00\xf0?'
p1145
tp1146
bsg57
I01
sg58
g59
sbsg41
(dp1147
I139769023570384
g1120
ssg58
g59
sbsg74
I2
sg75
g0
(g139
g2
Ntp1148
Rp1149
(dp1150
g14
I2
sg84
Nsg83
g26
(g27
(I0
tp1151
g29
tp1152
Rp1153
(I1
(I3
I3
tp1154
g36
I00
S'\x00\x00\x00\x00\x00\x00\xf0?\x00\x00\x00\x00\x00\x00\x00\x00\x00\x00\x00\x00\x00\x00\x00\x00\x00\x00\x00\x00\x00\x00\x00\x00\x00\x00\x00\x00\x00\x00\xf0?\x00\x00\x00\x00\x00\x00\x00\x00\x00\x00\x00\x00\x00\x00\x00\x00\x00\x00\x00\x00\x00\x00\x00\x00\x00\x00\x00\x00\x00\x00\xf0?'
p1155
tp1156
bsg58
g59
sg41
(dp1157
I139769023570384
g1120
ssbsg41
(dp1158
I139769023570448
g1117
ssg58
g59
sbsg74
I2
sg75
g81
sg41
(dp1159
I139769023570576
g0
(g16
g2
Ntp1160
Rp1161
(dp1162
g14
I1
sg20
g0
(g21
g2
Ntp1163
Rp1164
(dp1165
g14
I1
sg25
g26
(g27
(I0
tp1166
g29
tp1167
Rp1168
(I1
(I2
tp1169
g36
I00
S'H\xaf\xbc\x9a\xf2\xd7z>H\xaf\xbc\x9a\xf2\xd7z>'
p1170
tp1171
bsg41
(dp1172
I139769023570576
g1161
ssg43
g26
(g27
(I0
tp1173
g29
tp1174
Rp1175
(I1
(I2
I2
tp1176
g36
I00
S'\x00\x00\x00\x00\x00\x00\x00\x00\x00\x00\x00\x00\x00\x00\x00\x00\x00\x00\x00\x00\x00\x00\xf0?\x00\x00\x00\x00\x00\x00\xf0?'
p1177
tp1178
bsg50
g26
(g27
(I0
tp1179
g29
tp1180
Rp1181
(I1
(I2
I2
tp1182
g36
I00
S'\x00\x00\x00\x00\x00\x00\x00\x00\x00\x00\x00\x00\x00\x00\x00\x00\x00\x00\x00\x00\x00\x00\xf0?\x00\x00\x00\x00\x00\x00\xf0?'
p1183
tp1184
bsg57
I01
sg58
g59
sbsg60
g1117
sg50
Nsg41
(dp1185
sg58
g59
sbssg58
g59
sbsI139769023512144
g0
(g68
g2
Ntp1186
Rp1187
(dp1188
g14
I1
sg72
I2
sg73
g0
(g68
g2
Ntp1189
Rp1190
(dp1191
g14
I1
sg72
I2
sg73
g0
(g79
g2
Ntp1192
Rp1193
(dp1194
g14
I1
sg83
Nsg84
Nsg85
g0
(g21
g2
Ntp1195
Rp1196
(dp1197
g14
I1
sg25
g26
(g27
(I0
tp1198
g29
tp1199
Rp1200
(I1
(I2
tp1201
g36
I00
S'H\xaf\xbc\x9a\xf2\xd7z>H\xaf\xbc\x9a\xf2\xd7z>'
p1202
tp1203
bsg41
(dp1204
I139769023511952
g1193
ssg43
g26
(g27
(I0
tp1205
g29
tp1206
Rp1207
(I1
(I2
I2
tp1208
g36
I00
S'\x00\x00\x00\x00\x00\x00\x00\x00\x00\x00\x00\x00\x00\x00\x00\x00\x00\x00\x00\x00\x00\x00\xf0?\x00\x00\x00\x00\x00\x00\xf0?'
p1209
tp1210
bsg50
g26
(g27
(I0
tp1211
g29
tp1212
Rp1213
(I1
(I2
I2
tp1214
g36
I00
S'\x00\x00\x00\x00\x00\x00\x00\x00\x00\x00\x00\x00\x00\x00\x00\x00\x00\x00\x00\x00\x00\x00\xf0?\x00\x00\x00\x00\x00\x00\xf0?'
p1215
tp1216
bsg57
I01
sg58
g59
sbsg41
(dp1217
I139769023512080
g1190
ssg58
g59
sbsg74
I2
sg75
g0
(g139
g2
Ntp1218
Rp1219
(dp1220
g14
I2
sg84
Nsg83
g26
(g27
(I0
tp1221
g29
tp1222
Rp1223
(I1
(I3
I3
tp1224
g36
I00
S'\x00\x00\x00\x00\x00\x00\xf0?\x00\x00\x00\x00\x00\x00\x00\x00\x00\x00\x00\x00\x00\x00\x00\x00\x00\x00\x00\x00\x00\x00\x00\x00\x00\x00\x00\x00\x00\x00\xf0?\x00\x00\x00\x00\x00\x00\x00\x00\x00\x00\x00\x00\x00\x00\x00\x00\x00\x00\x00\x00\x00\x00\x00\x00\x00\x00\x00\x00\x00\x00\xf0?'
p1225
tp1226
bsg58
g59
sg41
(dp1227
I139769023512080
g1190
ssbsg41
(dp1228
I139769023512144
g1187
ssg58
g59
sbsg74
I2
sg75
g81
sg41
(dp1229
I139769023512272
g0
(g16
g2
Ntp1230
Rp1231
(dp1232
g14
I1
sg20
g0
(g21
g2
Ntp1233
Rp1234
(dp1235
g14
I1
sg25
g26
(g27
(I0
tp1236
g29
tp1237
Rp1238
(I1
(I2
tp1239
g36
I00
S'H\xaf\xbc\x9a\xf2\xd7z>H\xaf\xbc\x9a\xf2\xd7z>'
p1240
tp1241
bsg41
(dp1242
I139769023512272
g1231
ssg43
g26
(g27
(I0
tp1243
g29
tp1244
Rp1245
(I1
(I2
I2
tp1246
g36
I00
S'\x00\x00\x00\x00\x00\x00\x00\x00\x00\x00\x00\x00\x00\x00\x00\x00\x00\x00\x00\x00\x00\x00\xf0?\x00\x00\x00\x00\x00\x00\xf0?'
p1247
tp1248
bsg50
g26
(g27
(I0
tp1249
g29
tp1250
Rp1251
(I1
(I2
I2
tp1252
g36
I00
S'\x00\x00\x00\x00\x00\x00\x00\x00\x00\x00\x00\x00\x00\x00\x00\x00\x00\x00\x00\x00\x00\x00\xf0?\x00\x00\x00\x00\x00\x00\xf0?'
p1253
tp1254
bsg57
I01
sg58
g59
sbsg60
g1187
sg50
Nsg41
(dp1255
sg58
g59
sbssg58
g59
sbsI139769028026064
g0
(g546
g2
Ntp1256
Rp1257
(dp1258
g14
I1
sg83
Nsg165
g81
sg166
g0
(g550
g2
Ntp1259
Rp1260
(dp1261
g14
I1
sg84
Nsg58
g59
sg41
(dp1262
I139769028026064
g1257
ssbsg84
Nsg58
g59
sg41
(dp1263
sbsI139769023615952
g0
(g68
g2
Ntp1264
Rp1265
(dp1266
g14
I1
sg72
I2
sg73
g0
(g68
g2
Ntp1267
Rp1268
(dp1269
g14
I1
sg72
I2
sg73
g0
(g79
g2
Ntp1270
Rp1271
(dp1272
g14
I1
sg83
Nsg84
Nsg85
g0
(g21
g2
Ntp1273
Rp1274
(dp1275
g14
I1
sg25
g26
(g27
(I0
tp1276
g29
tp1277
Rp1278
(I1
(I2
tp1279
g36
I00
S'H\xaf\xbc\x9a\xf2\xd7z>H\xaf\xbc\x9a\xf2\xd7z>'
p1280
tp1281
bsg41
(dp1282
I139769023615760
g1271
ssg43
g26
(g27
(I0
tp1283
g29
tp1284
Rp1285
(I1
(I2
I2
tp1286
g36
I00
S'\x00\x00\x00\x00\x00\x00\x00\x00\x00\x00\x00\x00\x00\x00\x00\x00\x00\x00\x00\x00\x00\x00\xf0?\x00\x00\x00\x00\x00\x00\xf0?'
p1287
tp1288
bsg50
g26
(g27
(I0
tp1289
g29
tp1290
Rp1291
(I1
(I2
I2
tp1292
g36
I00
S'\x00\x00\x00\x00\x00\x00\x00\x00\x00\x00\x00\x00\x00\x00\x00\x00\x00\x00\x00\x00\x00\x00\xf0?\x00\x00\x00\x00\x00\x00\xf0?'
p1293
tp1294
bsg57
I01
sg58
g59
sbsg41
(dp1295
I139769023615888
g1268
ssg58
g59
sbsg74
I2
sg75
g0
(g139
g2
Ntp1296
Rp1297
(dp1298
g14
I2
sg84
Nsg83
g26
(g27
(I0
tp1299
g29
tp1300
Rp1301
(I1
(I3
I3
tp1302
g36
I00
S'\x00\x00\x00\x00\x00\x00\xf0?\x00\x00\x00\x00\x00\x00\x00\x00\x00\x00\x00\x00\x00\x00\x00\x00\x00\x00\x00\x00\x00\x00\x00\x00\x00\x00\x00\x00\x00\x00\xf0?\x00\x00\x00\x00\x00\x00\x00\x00\x00\x00\x00\x00\x00\x00\x00\x00\x00\x00\x00\x00\x00\x00\x00\x00\x00\x00\x00\x00\x00\x00\xf0?'
p1303
tp1304
bsg58
g59
sg41
(dp1305
I139769023615888
g1268
ssbsg41
(dp1306
I139769023615952
g1265
ssg58
g59
sbsg74
I2
sg75
g81
sg41
(dp1307
I139769023616080
g0
(g16
g2
Ntp1308
Rp1309
(dp1310
g14
I1
sg20
g0
(g21
g2
Ntp1311
Rp1312
(dp1313
g14
I1
sg25
g26
(g27
(I0
tp1314
g29
tp1315
Rp1316
(I1
(I2
tp1317
g36
I00
S'H\xaf\xbc\x9a\xf2\xd7z>H\xaf\xbc\x9a\xf2\xd7z>'
p1318
tp1319
bsg41
(dp1320
I139769023616080
g1309
ssg43
g26
(g27
(I0
tp1321
g29
tp1322
Rp1323
(I1
(I2
I2
tp1324
g36
I00
S'\x00\x00\x00\x00\x00\x00\x00\x00\x00\x00\x00\x00\x00\x00\x00\x00\x00\x00\x00\x00\x00\x00\xf0?\x00\x00\x00\x00\x00\x00\xf0?'
p1325
tp1326
bsg50
g26
(g27
(I0
tp1327
g29
tp1328
Rp1329
(I1
(I2
I2
tp1330
g36
I00
S'\x00\x00\x00\x00\x00\x00\x00\x00\x00\x00\x00\x00\x00\x00\x00\x00\x00\x00\x00\x00\x00\x00\xf0?\x00\x00\x00\x00\x00\x00\xf0?'
p1331
tp1332
bsg57
I01
sg58
g59
sbsg60
g1265
sg50
Nsg41
(dp1333
sg58
g59
sbssg58
g59
sbsI139769023573968
g0
(g68
g2
Ntp1334
Rp1335
(dp1336
g14
I1
sg72
I2
sg73
g0
(g68
g2
Ntp1337
Rp1338
(dp1339
g14
I1
sg72
I2
sg73
g0
(g79
g2
Ntp1340
Rp1341
(dp1342
g14
I1
sg83
Nsg84
Nsg85
g0
(g21
g2
Ntp1343
Rp1344
(dp1345
g14
I1
sg25
g26
(g27
(I0
tp1346
g29
tp1347
Rp1348
(I1
(I2
tp1349
g36
I00
S'H\xaf\xbc\x9a\xf2\xd7z>H\xaf\xbc\x9a\xf2\xd7z>'
p1350
tp1351
bsg41
(dp1352
I139769023573776
g1341
ssg43
g26
(g27
(I0
tp1353
g29
tp1354
Rp1355
(I1
(I2
I2
tp1356
g36
I00
S'\x00\x00\x00\x00\x00\x00\x00\x00\x00\x00\x00\x00\x00\x00\x00\x00\x00\x00\x00\x00\x00\x00\xf0?\x00\x00\x00\x00\x00\x00\xf0?'
p1357
tp1358
bsg50
g26
(g27
(I0
tp1359
g29
tp1360
Rp1361
(I1
(I2
I2
tp1362
g36
I00
S'\x00\x00\x00\x00\x00\x00\x00\x00\x00\x00\x00\x00\x00\x00\x00\x00\x00\x00\x00\x00\x00\x00\xf0?\x00\x00\x00\x00\x00\x00\xf0?'
p1363
tp1364
bsg57
I01
sg58
g59
sbsg41
(dp1365
I139769023573904
g1338
ssg58
g59
sbsg74
I2
sg75
g0
(g139
g2
Ntp1366
Rp1367
(dp1368
g14
I2
sg84
Nsg83
g26
(g27
(I0
tp1369
g29
tp1370
Rp1371
(I1
(I3
I3
tp1372
g36
I00
S'\x00\x00\x00\x00\x00\x00\xf0?\x00\x00\x00\x00\x00\x00\x00\x00\x00\x00\x00\x00\x00\x00\x00\x00\x00\x00\x00\x00\x00\x00\x00\x00\x00\x00\x00\x00\x00\x00\xf0?\x00\x00\x00\x00\x00\x00\x00\x00\x00\x00\x00\x00\x00\x00\x00\x00\x00\x00\x00\x00\x00\x00\x00\x00\x00\x00\x00\x00\x00\x00\xf0?'
p1373
tp1374
bsg58
g59
sg41
(dp1375
I139769023573904
g1338
ssbsg41
(dp1376
I139769023573968
g1335
ssg58
g59
sbsg74
I2
sg75
g81
sg41
(dp1377
I139769023615120
g0
(g16
g2
Ntp1378
Rp1379
(dp1380
g14
I1
sg20
g0
(g21
g2
Ntp1381
Rp1382
(dp1383
g14
I1
sg25
g26
(g27
(I0
tp1384
g29
tp1385
Rp1386
(I1
(I2
tp1387
g36
I00
S'H\xaf\xbc\x9a\xf2\xd7z>H\xaf\xbc\x9a\xf2\xd7z>'
p1388
tp1389
bsg41
(dp1390
I139769023615120
g1379
ssg43
g26
(g27
(I0
tp1391
g29
tp1392
Rp1393
(I1
(I2
I2
tp1394
g36
I00
S'\x00\x00\x00\x00\x00\x00\x00\x00\x00\x00\x00\x00\x00\x00\x00\x00\x00\x00\x00\x00\x00\x00\xf0?\x00\x00\x00\x00\x00\x00\xf0?'
p1395
tp1396
bsg50
g26
(g27
(I0
tp1397
g29
tp1398
Rp1399
(I1
(I2
I2
tp1400
g36
I00
S'\x00\x00\x00\x00\x00\x00\x00\x00\x00\x00\x00\x00\x00\x00\x00\x00\x00\x00\x00\x00\x00\x00\xf0?\x00\x00\x00\x00\x00\x00\xf0?'
p1401
tp1402
bsg57
I01
sg58
g59
sbsg60
g1335
sg50
Nsg41
(dp1403
sg58
g59
sbssg58
g59
sbsI139769028079760
g0
(g546
g2
Ntp1404
Rp1405
(dp1406
g14
I1
sg83
Nsg165
g0
(g550
g2
Ntp1407
Rp1408
(dp1409
g14
I1
sg84
Nsg58
g59
sg41
(dp1410
I139769028079760
g1405
ssbsg166
g81
sg84
Nsg58
g59
sg41
(dp1411
sbsI139769027964368
g0
(g68
g2
Ntp1412
Rp1413
(dp1414
g14
I1
sg72
I2
sg73
g0
(g68
g2
Ntp1415
Rp1416
(dp1417
g14
I1
sg72
I2
sg73
g0
(g79
g2
Ntp1418
Rp1419
(dp1420
g14
I1
sg83
Nsg84
Nsg85
g0
(g21
g2
Ntp1421
Rp1422
(dp1423
g14
I1
sg25
g26
(g27
(I0
tp1424
g29
tp1425
Rp1426
(I1
(I2
tp1427
g36
I00
S'H\xaf\xbc\x9a\xf2\xd7z>H\xaf\xbc\x9a\xf2\xd7z>'
p1428
tp1429
bsg41
(dp1430
I139769027962832
g1419
ssg43
g26
(g27
(I0
tp1431
g29
tp1432
Rp1433
(I1
(I2
I2
tp1434
g36
I00
S'\x00\x00\x00\x00\x00\x00\x00\x00\x00\x00\x00\x00\x00\x00\x00\x00\x00\x00\x00\x00\x00\x00\xf0?\x00\x00\x00\x00\x00\x00\xf0?'
p1435
tp1436
bsg50
g26
(g27
(I0
tp1437
g29
tp1438
Rp1439
(I1
(I2
I2
tp1440
g36
I00
S'\x00\x00\x00\x00\x00\x00\x00\x00\x00\x00\x00\x00\x00\x00\x00\x00\x00\x00\x00\x00\x00\x00\xf0?\x00\x00\x00\x00\x00\x00\xf0?'
p1441
tp1442
bsg57
I01
sg58
g59
sbsg41
(dp1443
I139769027963536
g1416
ssg58
g59
sbsg74
I2
sg75
g0
(g139
g2
Ntp1444
Rp1445
(dp1446
g14
I2
sg84
Nsg83
g26
(g27
(I0
tp1447
g29
tp1448
Rp1449
(I1
(I3
I3
tp1450
g36
I00
S'\x00\x00\x00\x00\x00\x00\xf0?\x00\x00\x00\x00\x00\x00\x00\x00\x00\x00\x00\x00\x00\x00\x00\x00\x00\x00\x00\x00\x00\x00\x00\x00\x00\x00\x00\x00\x00\x00\xf0?\x00\x00\x00\x00\x00\x00\x00\x00\x00\x00\x00\x00\x00\x00\x00\x00\x00\x00\x00\x00\x00\x00\x00\x00\x00\x00\x00\x00\x00\x00\xf0?'
p1451
tp1452
bsg58
g59
sg41
(dp1453
I139769027963536
g1416
ssbsg41
(dp1454
I139769027964368
g1413
ssg58
g59
sbsg74
I2
sg75
g81
sg41
(dp1455
I139769027964560
g0
(g16
g2
Ntp1456
Rp1457
(dp1458
g14
I1
sg20
g0
(g21
g2
Ntp1459
Rp1460
(dp1461
g14
I1
sg25
g26
(g27
(I0
tp1462
g29
tp1463
Rp1464
(I1
(I2
tp1465
g36
I00
S'H\xaf\xbc\x9a\xf2\xd7z>H\xaf\xbc\x9a\xf2\xd7z>'
p1466
tp1467
bsg41
(dp1468
I139769027964560
g1457
ssg43
g26
(g27
(I0
tp1469
g29
tp1470
Rp1471
(I1
(I2
I2
tp1472
g36
I00
S'\x00\x00\x00\x00\x00\x00\x00\x00\x00\x00\x00\x00\x00\x00\x00\x00\x00\x00\x00\x00\x00\x00\xf0?\x00\x00\x00\x00\x00\x00\xf0?'
p1473
tp1474
bsg50
g26
(g27
(I0
tp1475
g29
tp1476
Rp1477
(I1
(I2
I2
tp1478
g36
I00
S'\x00\x00\x00\x00\x00\x00\x00\x00\x00\x00\x00\x00\x00\x00\x00\x00\x00\x00\x00\x00\x00\x00\xf0?\x00\x00\x00\x00\x00\x00\xf0?'
p1479
tp1480
bsg57
I01
sg58
g59
sbsg60
g1413
sg50
Nsg41
(dp1481
sg58
g59
sbssg58
g59
sbsI139769023571344
g0
(g68
g2
Ntp1482
Rp1483
(dp1484
g14
I1
sg72
I2
sg73
g0
(g68
g2
Ntp1485
Rp1486
(dp1487
g14
I1
sg72
I2
sg73
g0
(g79
g2
Ntp1488
Rp1489
(dp1490
g14
I1
sg83
Nsg84
Nsg85
g0
(g21
g2
Ntp1491
Rp1492
(dp1493
g14
I1
sg25
g26
(g27
(I0
tp1494
g29
tp1495
Rp1496
(I1
(I2
tp1497
g36
I00
S'H\xaf\xbc\x9a\xf2\xd7z>H\xaf\xbc\x9a\xf2\xd7z>'
p1498
tp1499
bsg41
(dp1500
I139769023571152
g1489
ssg43
g26
(g27
(I0
tp1501
g29
tp1502
Rp1503
(I1
(I2
I2
tp1504
g36
I00
S'\x00\x00\x00\x00\x00\x00\x00\x00\x00\x00\x00\x00\x00\x00\x00\x00\x00\x00\x00\x00\x00\x00\xf0?\x00\x00\x00\x00\x00\x00\xf0?'
p1505
tp1506
bsg50
g26
(g27
(I0
tp1507
g29
tp1508
Rp1509
(I1
(I2
I2
tp1510
g36
I00
S'\x00\x00\x00\x00\x00\x00\x00\x00\x00\x00\x00\x00\x00\x00\x00\x00\x00\x00\x00\x00\x00\x00\xf0?\x00\x00\x00\x00\x00\x00\xf0?'
p1511
tp1512
bsg57
I01
sg58
g59
sbsg41
(dp1513
I139769023571280
g1486
ssg58
g59
sbsg74
I2
sg75
g0
(g139
g2
Ntp1514
Rp1515
(dp1516
g14
I2
sg84
Nsg83
g26
(g27
(I0
tp1517
g29
tp1518
Rp1519
(I1
(I3
I3
tp1520
g36
I00
S'\x00\x00\x00\x00\x00\x00\xf0?\x00\x00\x00\x00\x00\x00\x00\x00\x00\x00\x00\x00\x00\x00\x00\x00\x00\x00\x00\x00\x00\x00\x00\x00\x00\x00\x00\x00\x00\x00\xf0?\x00\x00\x00\x00\x00\x00\x00\x00\x00\x00\x00\x00\x00\x00\x00\x00\x00\x00\x00\x00\x00\x00\x00\x00\x00\x00\x00\x00\x00\x00\xf0?'
p1521
tp1522
bsg58
g59
sg41
(dp1523
I139769023571280
g1486
ssbsg41
(dp1524
I139769023571344
g1483
ssg58
g59
sbsg74
I2
sg75
g81
sg41
(dp1525
I139769023571472
g0
(g16
g2
Ntp1526
Rp1527
(dp1528
g14
I1
sg20
g0
(g21
g2
Ntp1529
Rp1530
(dp1531
g14
I1
sg25
g26
(g27
(I0
tp1532
g29
tp1533
Rp1534
(I1
(I2
tp1535
g36
I00
S'H\xaf\xbc\x9a\xf2\xd7z>H\xaf\xbc\x9a\xf2\xd7z>'
p1536
tp1537
bsg41
(dp1538
I139769023571472
g1527
ssg43
g26
(g27
(I0
tp1539
g29
tp1540
Rp1541
(I1
(I2
I2
tp1542
g36
I00
S'\x00\x00\x00\x00\x00\x00\x00\x00\x00\x00\x00\x00\x00\x00\x00\x00\x00\x00\x00\x00\x00\x00\xf0?\x00\x00\x00\x00\x00\x00\xf0?'
p1543
tp1544
bsg50
g26
(g27
(I0
tp1545
g29
tp1546
Rp1547
(I1
(I2
I2
tp1548
g36
I00
S'\x00\x00\x00\x00\x00\x00\x00\x00\x00\x00\x00\x00\x00\x00\x00\x00\x00\x00\x00\x00\x00\x00\xf0?\x00\x00\x00\x00\x00\x00\xf0?'
p1549
tp1550
bsg57
I01
sg58
g59
sbsg60
g1483
sg50
Nsg41
(dp1551
sg58
g59
sbssg58
g59
sbsI139769023509008
g0
(g68
g2
Ntp1552
Rp1553
(dp1554
g14
I1
sg72
I2
sg73
g0
(g68
g2
Ntp1555
Rp1556
(dp1557
g14
I1
sg72
I2
sg73
g0
(g79
g2
Ntp1558
Rp1559
(dp1560
g14
I1
sg83
Nsg84
Nsg85
g0
(g21
g2
Ntp1561
Rp1562
(dp1563
g14
I1
sg25
g26
(g27
(I0
tp1564
g29
tp1565
Rp1566
(I1
(I2
tp1567
g36
I00
S'H\xaf\xbc\x9a\xf2\xd7z>H\xaf\xbc\x9a\xf2\xd7z>'
p1568
tp1569
bsg41
(dp1570
I139769023508880
g1559
ssg43
g26
(g27
(I0
tp1571
g29
tp1572
Rp1573
(I1
(I2
I2
tp1574
g36
I00
S'\x00\x00\x00\x00\x00\x00\x00\x00\x00\x00\x00\x00\x00\x00\x00\x00\x00\x00\x00\x00\x00\x00\xf0?\x00\x00\x00\x00\x00\x00\xf0?'
p1575
tp1576
bsg50
g26
(g27
(I0
tp1577
g29
tp1578
Rp1579
(I1
(I2
I2
tp1580
g36
I00
S'\x00\x00\x00\x00\x00\x00\x00\x00\x00\x00\x00\x00\x00\x00\x00\x00\x00\x00\x00\x00\x00\x00\xf0?\x00\x00\x00\x00\x00\x00\xf0?'
p1581
tp1582
bsg57
I01
sg58
g59
sbsg41
(dp1583
I139769023455056
g1556
ssg58
g59
sbsg74
I2
sg75
g0
(g139
g2
Ntp1584
Rp1585
(dp1586
g14
I2
sg84
Nsg83
g26
(g27
(I0
tp1587
g29
tp1588
Rp1589
(I1
(I3
I3
tp1590
g36
I00
S'\x00\x00\x00\x00\x00\x00\xf0?\x00\x00\x00\x00\x00\x00\x00\x00\x00\x00\x00\x00\x00\x00\x00\x00\x00\x00\x00\x00\x00\x00\x00\x00\x00\x00\x00\x00\x00\x00\xf0?\x00\x00\x00\x00\x00\x00\x00\x00\x00\x00\x00\x00\x00\x00\x00\x00\x00\x00\x00\x00\x00\x00\x00\x00\x00\x00\x00\x00\x00\x00\xf0?'
p1591
tp1592
bsg58
g59
sg41
(dp1593
I139769023455056
g1556
ssbsg41
(dp1594
I139769023509008
g1553
ssg58
g59
sbsg74
I2
sg75
g81
sg41
(dp1595
I139769023509072
g0
(g16
g2
Ntp1596
Rp1597
(dp1598
g14
I1
sg20
g0
(g21
g2
Ntp1599
Rp1600
(dp1601
g14
I1
sg25
g26
(g27
(I0
tp1602
g29
tp1603
Rp1604
(I1
(I2
tp1605
g36
I00
S'H\xaf\xbc\x9a\xf2\xd7z>H\xaf\xbc\x9a\xf2\xd7z>'
p1606
tp1607
bsg41
(dp1608
I139769023509072
g1597
ssg43
g26
(g27
(I0
tp1609
g29
tp1610
Rp1611
(I1
(I2
I2
tp1612
g36
I00
S'\x00\x00\x00\x00\x00\x00\x00\x00\x00\x00\x00\x00\x00\x00\x00\x00\x00\x00\x00\x00\x00\x00\xf0?\x00\x00\x00\x00\x00\x00\xf0?'
p1613
tp1614
bsg50
g26
(g27
(I0
tp1615
g29
tp1616
Rp1617
(I1
(I2
I2
tp1618
g36
I00
S'\x00\x00\x00\x00\x00\x00\x00\x00\x00\x00\x00\x00\x00\x00\x00\x00\x00\x00\x00\x00\x00\x00\xf0?\x00\x00\x00\x00\x00\x00\xf0?'
p1619
tp1620
bsg57
I01
sg58
g59
sbsg60
g1553
sg50
Nsg41
(dp1621
sg58
g59
sbssg58
g59
sbsI139769027961168
g0
(g546
g2
Ntp1622
Rp1623
(dp1624
g14
I1
sg83
Nsg165
g0
(g550
g2
Ntp1625
Rp1626
(dp1627
g14
I1
sg84
Nsg58
g59
sg41
(dp1628
I139769027961168
g1623
ssbsg166
g81
sg84
Nsg58
g59
sg41
(dp1629
sbsI139769028080272
g0
(g68
g2
Ntp1630
Rp1631
(dp1632
g14
I1
sg72
I2
sg73
g0
(g68
g2
Ntp1633
Rp1634
(dp1635
g14
I1
sg72
I2
sg73
g0
(g79
g2
Ntp1636
Rp1637
(dp1638
g14
I1
sg83
Nsg84
Nsg85
g0
(g21
g2
Ntp1639
Rp1640
(dp1641
g14
I1
sg25
g26
(g27
(I0
tp1642
g29
tp1643
Rp1644
(I1
(I2
tp1645
g36
I00
S'H\xaf\xbc\x9a\xf2\xd7z>H\xaf\xbc\x9a\xf2\xd7z>'
p1646
tp1647
bsg41
(dp1648
I139769028080976
g1637
ssg43
g26
(g27
(I0
tp1649
g29
tp1650
Rp1651
(I1
(I2
I2
tp1652
g36
I00
S'\x00\x00\x00\x00\x00\x00\x00\x00\x00\x00\x00\x00\x00\x00\x00\x00\x00\x00\x00\x00\x00\x00\xf0?\x00\x00\x00\x00\x00\x00\xf0?'
p1653
tp1654
bsg50
g26
(g27
(I0
tp1655
g29
tp1656
Rp1657
(I1
(I2
I2
tp1658
g36
I00
S'\x00\x00\x00\x00\x00\x00\x00\x00\x00\x00\x00\x00\x00\x00\x00\x00\x00\x00\x00\x00\x00\x00\xf0?\x00\x00\x00\x00\x00\x00\xf0?'
p1659
tp1660
bsg57
I01
sg58
g59
sbsg41
(dp1661
I139769028083536
g1634
ssg58
g59
sbsg74
I2
sg75
g0
(g139
g2
Ntp1662
Rp1663
(dp1664
g14
I2
sg84
Nsg83
g26
(g27
(I0
tp1665
g29
tp1666
Rp1667
(I1
(I3
I3
tp1668
g36
I00
S'\x00\x00\x00\x00\x00\x00\xf0?\x00\x00\x00\x00\x00\x00\x00\x00\x00\x00\x00\x00\x00\x00\x00\x00\x00\x00\x00\x00\x00\x00\x00\x00\x00\x00\x00\x00\x00\x00\xf0?\x00\x00\x00\x00\x00\x00\x00\x00\x00\x00\x00\x00\x00\x00\x00\x00\x00\x00\x00\x00\x00\x00\x00\x00\x00\x00\x00\x00\x00\x00\xf0?'
p1669
tp1670
bsg58
g59
sg41
(dp1671
I139769028083536
g1634
ssbsg41
(dp1672
I139769028080272
g1631
ssg58
g59
sbsg74
I2
sg75
g81
sg41
(dp1673
I139769028082128
g0
(g16
g2
Ntp1674
Rp1675
(dp1676
g14
I1
sg20
g0
(g21
g2
Ntp1677
Rp1678
(dp1679
g14
I1
sg25
g26
(g27
(I0
tp1680
g29
tp1681
Rp1682
(I1
(I2
tp1683
g36
I00
S'H\xaf\xbc\x9a\xf2\xd7z>H\xaf\xbc\x9a\xf2\xd7z>'
p1684
tp1685
bsg41
(dp1686
I139769028082128
g1675
ssg43
g26
(g27
(I0
tp1687
g29
tp1688
Rp1689
(I1
(I2
I2
tp1690
g36
I00
S'\x00\x00\x00\x00\x00\x00\x00\x00\x00\x00\x00\x00\x00\x00\x00\x00\x00\x00\x00\x00\x00\x00\xf0?\x00\x00\x00\x00\x00\x00\xf0?'
p1691
tp1692
bsg50
g26
(g27
(I0
tp1693
g29
tp1694
Rp1695
(I1
(I2
I2
tp1696
g36
I00
S'\x00\x00\x00\x00\x00\x00\x00\x00\x00\x00\x00\x00\x00\x00\x00\x00\x00\x00\x00\x00\x00\x00\xf0?\x00\x00\x00\x00\x00\x00\xf0?'
p1697
tp1698
bsg57
I01
sg58
g59
sbsg60
g1631
sg50
Nsg41
(dp1699
sg58
g59
sbssg58
g59
sbssg58
g59
sbsg41
(dp1700
I139769199711696
g70
ssg58
g59
sbsg41
(dp1701
I139769199711824
g242
sI139769199711888
g163
ssg58
g59
sbssVinput_dims
p1702
I2
sVchild
p1703
g0
(g546
g2
Ntp1704
Rp1705
(dp1706
g14
I0
sg83
g26
(g27
(I0
tp1707
g29
tp1708
Rp1709
(I1
(I3
I3
tp1710
g36
I00
S'\x00\x00\x00\x00\x00\x00\xf0?\x00\x00\x00\x00\x00\x00\x00\x00\x00\x00\x00\x00\x00\x00\x00\x00\x00\x00\x00\x00\x00\x00\x00\x00\x00\x00\x00\x00\x00\x00\xf0?\x00\x00\x00\x00\x00\x00\x00\x00\x00\x00\x00\x00\x00\x00\x00\x00\x00\x00\x00\x00\x00\x00\x00\x00\x00\x00\x00\x00\x00\x00\xf0?'
p1711
tp1712
bsg165
g0
(g550
g2
Ntp1713
Rp1714
(dp1715
g14
I1
sg84
Nsg58
g59
sg41
(dp1716
I139769023453904
g1705
ssbsg166
g0
(g550
g2
Ntp1717
Rp1718
(dp1719
g14
I1
sg84
Nsg58
g59
sg41
(dp1720
I139769023453904
g1705
ssbsg84
Nsg58
g59
sg41
(dp1721
I139769199711440
g63
ssbsbsg50
Nsg41
(dp1722
I139769199710928
g12
ssg58
g59
sbsg83
Nsg84
Nsg58
g59
sg41
(dp1723
I139769199711632
g77
ssbsS'_get_patches_for_fill'
p1724
g0
(cmatplotlib.axes._base
_process_plot_var_args
p1725
g2
Ntp1726
Rp1727
(dp1728
Vaxes
p1729
g7
sVcommand
p1730
Vfill
p1731
sbsS'_xcid'
p1732
I1
sS'_label'
p1733
V
p1734
sS'legend_'
p1735
NsS'texts'
p1736
(lp1737
sS'_frameon'
p1738
I01
sS'_autoscaleYon'
p1739
I01
sS'_hold'
p1740
I01
sS'artists'
p1741
(lp1742
sS'_clipon'
p1743
I01
sS'tables'
p1744
(lp1745
sS'patches'
p1746
(lp1747
sS'title'
p1748
g0
(cmatplotlib.text
Text
p1749
g2
Ntp1750
Rp1751
(dp1752
g1733
g59
sS'_visible'
p1753
I01
sS'figure'
p1754
g0
(cmatplotlib.figure
Figure
p1755
g2
Ntp1756
Rp1757
(dp1758
g1733
g59
sg1753
I01
sg1754
NsS'stale_callback'
p1759
NsS'_rasterized'
p1760
Nsg1736
(lp1761
sg1740
I01
sg1741
(lp1762
sS'_path_effects'
p1763
(lp1764
sS'frameon'
p1765
I01
sg1743
I01
sV__mpl_version__
p1766
S'1.5.1'
p1767
sS'_clippath'
p1768
NsS'_contains'
p1769
NsS'_tight_parameters'
p1770
(dp1771
sS'_mouseover'
p1772
I00
sS'_animated'
p1773
I00
sS'_propobservers'
p1774
(dp1775
sS'eventson'
p1776
I00
sS'_picker'
p1777
NsS'_remove_method'
p1778
NsS'figurePatch'
p1779
g0
(cmatplotlib.patches
Rectangle
p1780
g2
Ntp1781
Rp1782
(dp1783
g1733
g59
sS'_width'
p1784
F1.0
sS'_fill'
p1785
I01
sg1754
g1757
sg1753
I01
sg1759
NsS'_agg_filter'
p1786
Nsg1763
g1764
sS'_gid'
p1787
Nsg1743
I01
sS'_combined_transform'
p1788
g0
(g550
g2
Ntp1789
Rp1790
(dp1791
g14
I1
sg84
Nsg58
g59
sg41
(dp1792
sbsS'_edgecolor'
p1793
(F1.0
F1.0
F1.0
F1.0
tp1794
sg1768
Nsg165
F0.0
sg166
F0.0
sS'_sketch'
p1795
Nsg1769
Nsg1760
Nsg1772
I00
sg1773
I00
sg1774
(dp1796
sS'_rect_transform'
p1797
g0
(g550
g2
Ntp1798
Rp1799
(dp1800
g14
I1
sg84
Nsg58
g59
sg41
(dp1801
sbsg1776
I00
sS'_hatch'
p1802
NsS'_stale'
p1803
I01
sS'_linewidth'
p1804
F0.0
sS'clipbox'
p1805
NsS'_height'
p1806
F1.0
sg1777
NsS'_antialiased'
p1807
I00
sS'_original_facecolor'
p1808
V0.75
p1809
sS'_snap'
p1810
NsS'_facecolor'
p1811
(F0.75
F0.75
F0.75
F1.0
tp1812
sS'_joinstyle'
p1813
Vmiter
p1814
sS'_linestyle'
p1815
Vsolid
p1816
sS'_original_edgecolor'
p1817
Vw
p1818
sS'_oid'
p1819
I0
sS'_transformSet'
p1820
I01
sS'_angle'
p1821
F0.0
sS'_alpha'
p1822
Nsg60
g112
sS'_capstyle'
p1823
Vbutt
p1824
sS'_url'
p1825
NsS'_axes'
p1826
Nsg1778
Nsbsg1786
Nsg1805
NsV_restore_to_pylab
p1827
I01
sS'images'
p1828
(lp1829
sS'_suptitle'
p1830
NsS'dpi_scale_trans'
p1831
g141
sS'number'
p1832
I1
sS'callbacks'
p1833
g0
(cmatplotlib.cbook
CallbackRegistry
p1834
g2
Ntp1835
Rp1836
sg1810
NsS'_tight'
p1837
I00
sg1803
I01
sS'bbox'
p1838
g115
sg1795
Nsg1819
I0
sg1746
(lp1839
sS'legends'
p1840
(lp1841
sS'suppressComposite'
p1842
Nsg1820
I00
sg1822
NsS'_axstack'
p1843
g0
(cmatplotlib.figure
AxesStack
p1844
g2
Ntp1845
Rp1846
(dp1847
S'_default'
p1848
NsS'_elements'
p1849
(lp1850
(((I1
I1
I1
tp1851
(ttp1852
(I1
g7
tp1853
tp1854
asS'_ind'
p1855
I1
sS'_pos'
p1856
I0
sbsg60
NsS'lines'
p1857
(lp1858
sS'patch'
p1859
g1782
sS'subplotpars'
p1860
g0
(cmatplotlib.figure
SubplotParams
p1861
g2
Ntp1862
Rp1863
(dp1864
S'right'
p1865
F0.9
sS'bottom'
p1866
F0.1
sS'top'
p1867
F0.9
sS'wspace'
p1868
F0.2
sS'validate'
p1869
I01
sS'hspace'
p1870
F0.2
sS'left'
p1871
F0.125
sbsg1787
Nsg1825
NsS'bbox_inches'
p1872
g118
sS'transFigure'
p1873
g112
sS'_dpi'
p1874
F80.0
sbsg1759
NsS'_fontproperties'
p1875
g0
(cmatplotlib.font_manager
FontProperties
p1876
g2
Ntp1877
Rp1878
(dp1879
S'_family'
p1880
(lp1881
Vsans-serif
p1882
asS'_file'
p1883
NsS'_variant'
p1884
Vnormal
p1885
sS'_slant'
p1886
g1885
sS'_size'
p1887
Vlarge
p1888
sS'_weight'
p1889
I400
sS'_stretch'
p1890
g1885
sbsg1786
Nsg1763
g1764
sS'_multialignment'
p1891
Nsg1743
I01
sg1768
Nsg165
F1.0
sg166
F0.5
sg1769
Nsg1760
Nsg1772
I00
sg1773
I00
sg1774
(dp1892
sS'_renderer'
p1893
Nsg1776
I00
sg1826
g7
sg1805
Nsg1825
NsS'_rotation_mode'
p1894
Nsg1777
Nsg1810
Nsg1803
I01
sS'_verticalalignment'
p1895
Vbaseline
p1896
sS'_text'
p1897
V
p1898
sS'_bbox_patch'
p1899
Nsg1795
Nsg1819
I0
sS'_rotation'
p1900
Nsg1820
I01
sg1822
NsS'_linespacing'
p1901
F1.2
sg60
g315
sS'_usetex'
p1902
NsS'_wrap'
p1903
I00
sg1787
NsS'_color'
p1904
Vk
p1905
sS'_horizontalalignment'
p1906
Vcenter
p1907
sg1778
NsbsS'_current_image'
p1908
NsS'mouseover_set'
p1909
c__builtin__
set
p1910
((lp1911
tp1912
Rp1913
sg1760
NsS'_cursorProps'
p1914
(I1
(F0.0
F0.0
F0.0
F1.0
tp1915
tp1916
sS'numRows'
p1917
I1
sS'collections'
p1918
(lp1919
sg1826
g7
sg1774
(dp1920
sg1776
I00
sS'containers'
p1921
(lp1922
sg1773
I00
sg1805
NsS'_get_lines'
p1923
g0
(g1725
g2
Ntp1924
Rp1925
(dp1926
g1729
g7
sg1730
Vplot
p1927
sbsS'_aspect'
p1928
Vauto
p1929
sS'fmt_xdata'
p1930
Nsg1833
g0
(g1834
g2
Ntp1931
Rp1932
sg1810
NsS'_anchor'
p1933
VC
p1934
sg1803
I01
sg1838
g87
sS'ignore_existing_data_limits'
p1935
I00
sg1795
Nsg1819
I0
sg1820
I00
sS'_left_title'
p1936
g0
(g1749
g2
Ntp1937
Rp1938
(dp1939
g1733
g59
sg1753
I01
sg1754
g1757
sg1759
Nsg1875
g0
(g1876
g2
Ntp1940
Rp1941
(dp1942
g1880
g1881
sg1883
Nsg1884
g1885
sg1886
g1885
sg1887
g1888
sg1889
I400
sg1890
g1885
sbsg1786
Nsg1763
g1764
sg1891
Nsg1743
I01
sg1768
Nsg165
F1.0
sg166
F0.0
sg1769
Nsg1760
Nsg1772
I00
sg1773
I00
sg1774
(dp1943
sg1893
Nsg1776
I00
sg1826
g7
sg1805
Nsg1825
Nsg1894
Nsg1777
Nsg1810
Nsg1803
I01
sg1895
g1896
sg1897
V
p1944
sg1899
Nsg1795
Nsg1819
I0
sg1900
Nsg1820
I01
sg1822
Nsg1901
F1.2
sg60
g319
sg1902
Nsg1903
I00
sg1787
Nsg1904
g1905
sg1906
Vleft
p1945
sg1778
NsbsS'_right_title'
p1946
g0
(g1749
g2
Ntp1947
Rp1948
(dp1949
g1733
g59
sg1753
I01
sg1754
g1757
sg1759
Nsg1875
g0
(g1876
g2
Ntp1950
Rp1951
(dp1952
g1880
g1881
sg1883
Nsg1884
g1885
sg1886
g1885
sg1887
g1888
sg1889
I400
sg1890
g1885
sbsg1786
Nsg1763
g1764
sg1891
Nsg1743
I01
sg1768
Nsg165
F1.0
sg166
F1.0
sg1769
Nsg1760
Nsg1772
I00
sg1773
I00
sg1774
(dp1953
sg1893
Nsg1776
I00
sg1826
g7
sg1805
Nsg1825
Nsg1894
Nsg1777
Nsg1810
Nsg1803
I01
sg1895
g1896
sg1897
V
p1954
sg1899
Nsg1795
Nsg1819
I0
sg1900
Nsg1820
I01
sg1822
Nsg1901
F1.2
sg60
g323
sg1902
Nsg1903
I00
sg1787
Nsg1904
g1905
sg1906
Vright
p1955
sg1778
NsbsS'transScale'
p1956
g63
sg60
NsS'axison'
p1957
I01
sg1859
g0
(g1780
g2
Ntp1958
Rp1959
(dp1960
g1733
g59
sg1784
F1.0
sg1785
I01
sg1754
g1757
sg1753
I01
sg1759
Nsg1786
Nsg1763
g1764
sg1787
Nsg1743
I01
sg1788
g0
(g550
g2
Ntp1961
Rp1962
(dp1963
g14
I1
sg84
Nsg58
g59
sg41
(dp1964
sbsg1793
(F0.0
F0.0
F0.0
F0.0
tp1965
sg1768
Nsg165
F0.0
sg166
F0.0
sg1795
Nsg1769
Nsg1760
Nsg1772
I00
sg1773
I00
sg1774
(dp1966
sg1797
g1416
sg1776
I00
sg1802
Nsg1803
I01
sg1804
F0.0
sg1805
Nsg1806
F1.0
sg1777
Nsg1807
I01
sg1808
g1818
sg1810
Nsg1811
(F1.0
F1.0
F1.0
F1.0
tp1967
sg1813
g1814
sg1815
g1816
sg1817
VNone
p1968
sg1819
I0
sg1820
I01
sg1821
F0.0
sg1822
Nsg60
g81
sg1823
g1824
sg1825
Nsg1826
Nsg1778
NsbsS'viewLim'
p1969
g23
sg1763
g1764
sS'_subplotspec'
p1970
g0
(cmatplotlib.gridspec
SubplotSpec
p1971
g2
Ntp1972
Rp1973
(dp1974
S'num1'
p1975
I0
sS'num2'
p1976
NsS'_gridspec'
p1977
g0
(cmatplotlib.gridspec
GridSpec
p1978
g2
Ntp1979
Rp1980
(dp1981
S'_nrows'
p1982
I1
sg1865
NsS'_col_width_ratios'
p1983
Nsg1866
Nsg1867
Nsg1868
NsS'_ncols'
p1984
I1
sg1870
NsS'_row_height_ratios'
p1985
Nsg1871
NsbsbsS'_adjustable'
p1986
Vbox
p1987
sg1754
g1757
sS'titleOffsetTrans'
p1988
g310
sS'_yaxis_transform'
p1989
g163
sS'_gridOn'
p1990
I00
sg1759
NsS'colNum'
p1991
I0
sg1786
Nsg1828
(lp1992
sS'_autoscaleXon'
p1993
I01
sS'_xmargin'
p1994
F0.0
sS'rowNum'
p1995
I0
sS'_position'
p1996
g90
sS'_rasterization_zorder'
p1997
NsS'_cachedRenderer'
p1998
NsS'_navigate'
p1999
I01
sg1768
NsS'_originalPosition'
p2000
g0
(g21
g2
Ntp2001
Rp2002
(dp2003
g14
I1
sg25
g26
(g27
(I0
tp2004
g29
tp2005
Rp2006
(I1
(I2
tp2007
g36
I00
S'H\xaf\xbc\x9a\xf2\xd7z>H\xaf\xbc\x9a\xf2\xd7z>'
p2008
tp2009
bsg41
(dp2010
sg43
g26
(g27
(I0
tp2011
g29
tp2012
Rp2013
(I1
(I2
I2
tp2014
g36
I00
S'\x00\x00\x00\x00\x00\x00\xc0?\x98\x99\x99\x99\x99\x99\xb9?\xcd\xcc\xcc\xcc\xcc\xcc\xec?\xcd\xcc\xcc\xcc\xcc\xcc\xec?'
p2015
tp2016
bsg50
g26
(g27
(I0
tp2017
g29
tp2018
Rp2019
(I1
(I2
I2
tp2020
g36
I00
S'\x00\x00\x00\x00\x00\x00\xc0?\x98\x99\x99\x99\x99\x99\xb9?\xcd\xcc\xcc\xcc\xcc\xcc\xec?\xcd\xcc\xcc\xcc\xcc\xcc\xec?'
p2021
tp2022
bsg57
I01
sg58
g59
sbsg1769
NsS'_xaxis_transform'
p2023
g242
sg1772
I00
sS'figbox'
p2024
g90
sS'xaxis'
p2025
g0
(cmatplotlib.axis
XAxis
p2026
g2
Ntp2027
Rp2028
(dp2029
g1733
g59
sS'major'
p2030
g0
(cmatplotlib.axis
Ticker
p2031
g2
Ntp2032
Rp2033
(dp2034
S'locator'
p2035
g0
(cmatplotlib.ticker
AutoLocator
p2036
g2
Ntp2037
Rp2038
(dp2039
S'_symmetric'
p2040
I00
sS'_nbins'
p2041
I9
sS'_steps'
p2042
(lp2043
I1
aI2
aI5
aI10
asS'_prune'
p2044
NsS'_integer'
p2045
I00
sS'_trim'
p2046
I01
sS'axis'
p2047
g2028
sbsS'formatter'
p2048
g0
(cmatplotlib.ticker
ScalarFormatter
p2049
g2
Ntp2050
Rp2051
(dp2052
S'_powerlimits'
p2053
(lp2054
I-7
aI7
asS'orderOfMagnitude'
p2055
I0
sS'_useMathText'
p2056
I00
sS'format'
p2057
g59
sS'_useLocale'
p2058
I00
sS'_useOffset'
p2059
I01
sS'offset'
p2060
I0
sg1902
I00
sS'_scientific'
p2061
I01
sg2047
g2028
sbsbsS'isDefault_label'
p2062
I01
sS'_scale'
p2063
g0
(cmatplotlib.scale
LinearScale
p2064
g2
Ntp2065
Rp2066
sg1754
g1757
sg1753
I01
sS'_gridOnMinor'
p2067
I00
sg1759
Nsg1786
NsS'_smart_bounds'
p2068
I00
sg1763
g1764
sg1743
I01
sg1768
NsS'offsetText'
p2069
g0
(g1749
g2
Ntp2070
Rp2071
(dp2072
g1733
g59
sg1753
I01
sg1754
g1757
sg1759
Nsg1875
g0
(g1876
g2
Ntp2073
Rp2074
(dp2075
g1880
(lp2076
g1882
asg1883
Nsg1884
g1885
sg1886
g1885
sg1887
Vmedium
p2077
sg1889
I400
sg1890
g1885
sbsg1786
Nsg1763
g1764
sg1891
Nsg1743
I01
sg1768
Nsg165
I0
sg166
I1
sg1769
Nsg1760
Nsg1772
I00
sg1773
I00
sg1774
(dp2078
sg1893
Nsg1776
I00
sg1826
Nsg1805
Nsg1825
Nsg1894
Nsg1777
Nsg1810
Nsg1803
I01
sg1895
Vtop
p2079
sg1897
V
p2080
sg1899
Nsg1795
Nsg1819
I0
sg1900
Nsg1820
I01
sg1822
Nsg1901
F1.2
sg60
g1623
sg1902
Nsg1903
I00
sg1787
Nsg1904
g1905
sg1906
Vright
p2081
sg1778
Nsbsg1769
Nsg1760
NsS'label'
p2082
g0
(g1749
g2
Ntp2083
Rp2084
(dp2085
g1733
g59
sg1753
I01
sg1754
g1757
sg1759
Nsg1875
g0
(g1876
g2
Ntp2086
Rp2087
(dp2088
g1880
(lp2089
g1882
asg1883
Nsg1884
g1885
sg1886
g1885
sg1887
g2077
sg1889
I400
sg1890
g1885
sbsg1786
Nsg1763
g1764
sg1891
Nsg1743
I01
sg1768
Nsg165
I0
sg166
F0.5
sg1769
Nsg1760
Nsg1772
I00
sg1773
I00
sg1774
(dp2090
sg1893
Nsg1776
I00
sg1826
Nsg1805
Nsg1825
Nsg1894
Nsg1777
Nsg1810
Nsg1803
I01
sg1895
Vtop
p2091
sg1897
V
p2092
sg1899
Nsg1795
Nsg1819
I0
sg1900
Nsg1820
I01
sg1822
Nsg1901
F1.2
sg60
g548
sg1902
Nsg1903
I00
sg1787
Nsg1904
g1905
sg1906
Vcenter
p2093
sg1778
Nsbsg1772
I00
sS'isDefault_majfmt'
p2094
I01
sg1773
I00
sg1774
(dp2095
sS'units'
p2096
Nsg1776
I00
sS'minor'
p2097
g0
(g2031
g2
Ntp2098
Rp2099
(dp2100
g2035
g0
(cmatplotlib.ticker
NullLocator
p2101
g2
Ntp2102
Rp2103
(dp2104
g2047
g2028
sbsg2048
g0
(cmatplotlib.ticker
NullFormatter
p2105
g2
Ntp2106
Rp2107
(dp2108
g2047
g2028
sbsbsg1826
g7
sS'_major_tick_kw'
p2109
(dp2110
VgridOn
p2111
I00
ssS'isDefault_minloc'
p2112
I01
sg1805
g1597
sg1777
NsS'_gridOnMajor'
p2113
I00
sS'_lastNumMinorTicks'
p2114
I1
sS'labelpad'
p2115
F5.0
sS'majorTicks'
p2116
(lp2117
g0
(cmatplotlib.axis
XTick
p2118
g2
Ntp2119
Rp2120
(dp2121
g1733
g59
sg1784
F0.5
sg1754
g1757
sS'tick1On'
p2122
I01
sg1753
I01
sg1759
Nsg1819
I0
sg1786
NsS'_pad'
p2123
F4.0
sS'_labelcolor'
p2124
g1905
sS'gridOn'
p2125
I00
sg1887
F4.0
sg1763
g1764
sS'_tickdir'
p2126
Vin
p2127
sg2082
g0
(g1749
g2
Ntp2128
Rp2129
(dp2130
g1733
g59
sg1753
I01
sg1754
g1757
sg1759
Nsg1875
g0
(g1876
g2
Ntp2131
Rp2132
(dp2133
g1880
(lp2134
g1882
asg1883
Nsg1884
g1885
sg1886
g1885
sg1887
g2077
sg1889
I400
sg1890
g1885
sbsg1786
Nsg1763
g1764
sg1891
Nsg1743
I01
sg1768
Nsg165
I0
sg166
I0
sg1769
Nsg1760
Nsg1772
I00
sg1773
I00
sg1774
(dp2135
sg1893
Nsg1776
I00
sg1826
Nsg1805
Nsg1825
Nsg1894
Nsg1777
Nsg1810
Nsg1803
I01
sg1895
Vtop
p2136
sg1897
V
p2137
sg1899
Nsg1795
Nsg1819
I0
sg1900
Nsg1820
I01
sg1822
Nsg1901
F1.2
sg60
g255
sg1902
Nsg1903
I00
sg1787
Nsg1904
g1905
sg1906
Vcenter
p2138
sg1778
Nsbsg1743
I01
sg1768
NsS'label2On'
p2139
I00
sg1769
Nsg1760
NsS'tick2On'
p2140
I01
sg1772
I00
sg1773
I00
sg1774
(dp2141
sS'_tickmarkers'
p2142
(I2
I3
tp2143
sg1776
I00
sS'_zorder'
p2144
F2.01
sg1826
g7
sS'label1On'
p2145
I01
sg1805
g451
sg1825
NsS'label1'
p2146
g2129
sS'label2'
p2147
g0
(g1749
g2
Ntp2148
Rp2149
(dp2150
g1733
g59
sg1753
I01
sg1754
g1757
sg1759
Nsg1875
g0
(g1876
g2
Ntp2151
Rp2152
(dp2153
g1880
(lp2154
g1882
asg1883
Nsg1884
g1885
sg1886
g1885
sg1887
g2077
sg1889
I400
sg1890
g1885
sbsg1786
Nsg1763
g1764
sg1891
Nsg1743
I01
sg1768
Nsg165
I1
sg166
I0
sg1769
Nsg1760
Nsg1772
I00
sg1773
I00
sg1774
(dp2155
sg1893
Nsg1776
I00
sg1826
Nsg1805
Nsg1825
Nsg1894
Nsg1777
Nsg1810
Nsg1803
I01
sg1895
Vbottom
p2156
sg1897
V
p2157
sg1899
Nsg1795
Nsg1819
I0
sg1900
Nsg1820
I01
sg1822
Nsg1901
F1.2
sg60
g239
sg1902
Nsg1903
I00
sg1787
Nsg1904
g1905
sg1906
Vcenter
p2158
sg1778
Nsbsg1810
NsS'_loc'
p2159
I0
sg1803
I01
sg1795
NsS'_base_pad'
p2160
F4.0
sS'tick1line'
p2161
g0
(cmatplotlib.lines
Line2D
p2162
g2
Ntp2163
Rp2164
(dp2165
g1733
g59
sg1753
I01
sS'_solidcapstyle'
p2166
Vprojecting
p2167
sg1754
g1757
sS'_dashcapstyle'
p2168
Vbutt
p2169
sS'_linestyles'
p2170
Nsg1759
Nsg1786
Nsg1763
g1764
sS'_solidjoinstyle'
p2171
Vround
p2172
sg1743
I01
sS'_x_filled'
p2173
Nsg1768
Nsg165
Nsg166
Nsg1795
Nsg1769
Nsg1760
Nsg1772
I00
sS'_markevery'
p2174
Nsg1773
I00
sg1774
(dp2175
sS'verticalOffset'
p2176
Nsg1776
I00
sS'_subslice'
p2177
I00
sg1826
NsS'_transformed_path'
p2178
NsS'_markeredgewidth'
p2179
F0.5
sS'_markerfacecolor'
p2180
Vauto
p2181
sS'_dashSeq'
p2182
Nsg1904
g1905
sS'_marker'
p2183
g0
(cmatplotlib.markers
MarkerStyle
p2184
g2
Ntp2185
Rp2186
(dp2187
g2183
I2
sS'_alt_path'
p2188
NsS'_snap_threshold'
p2189
F1.0
sg60
g0
(g139
g2
Ntp2190
Rp2191
(dp2192
g14
I2
sg84
Nsg83
g26
(g27
(I0
tp2193
g29
tp2194
Rp2195
(I1
(I3
I3
tp2196
g36
I00
S'\x00\x00\x00\x00\x00\x00\xf0?\x00\x00\x00\x00\x00\x00\x00\x00\x00\x00\x00\x00\x00\x00\x00\x00\x00\x00\x00\x00\x00\x00\x00\x00\x00\x00\x00\x00\x00\x00\xf0?\x00\x00\x00\x00\x00\x00\x00\x00\x00\x00\x00\x00\x00\x00\x00\x00\x00\x00\x00\x00\x00\x00\x00\x00\x00\x00\x00\x00\x00\x00\xf0?'
p2197
tp2198
bsg58
g59
sg41
(dp2199
sbsS'_filled'
p2200
I00
sS'_fillstyle'
p2201
Vfull
p2202
sS'_alt_transform'
p2203
Nsg1823
Vbutt
p2204
sg1813
Vround
p2205
sS'_path'
p2206
g0
(cmatplotlib.path
Path
p2207
g2
Ntp2208
Rp2209
(dp2210
S'_should_simplify'
p2211
I00
sS'_codes'
p2212
NsS'_vertices'
p2213
g26
(g27
(I0
tp2214
g29
tp2215
Rp2216
(I1
(I2
I2
tp2217
g36
I00
S'\x00\x00\x00\x00\x00\x00\x00\x80\x00\x00\x00\x00\x00\x00\x00\x00\x00\x00\x00\x00\x00\x00\x00\x80\x00\x00\x00\x00\x00\x00\xf0?'
p2218
tp2219
bsS'_readonly'
p2220
I00
sS'_simplify_threshold'
p2221
F0.1111111111111111
sS'_interpolation_steps'
p2222
I1
sS'_has_nonfinite'
p2223
I00
sbsbsg1777
NsS'_markerfacecoloralt'
p2224
Vnone
p2225
sg1807
I01
sS'_markeredgecolor'
p2226
Vauto
p2227
sg1810
NsS'_markersize'
p2228
F4.0
sg1803
I01
sS'_xy'
p2229
Nsg1815
VNone
p2230
sS'_xorig'
p2231
(I0
tp2232
sg1819
I0
sS'_drawstyle'
p2233
Vdefault
p2234
sS'ind_offset'
p2235
I0
sS'pickradius'
p2236
I5
sg1820
I01
sg1822
NsS'_dashjoinstyle'
p2237
g2172
sS'_invalidx'
p2238
I01
sg60
g242
sS'_invalidy'
p2239
I01
sS'zorder'
p2240
F2.01
sg1787
Nsg1825
NsS'_yorig'
p2241
(I0
tp2242
sg1805
Nsg1804
F1.0
sg1778
Nsg2206
Nsbsg1820
I00
sS'gridline'
p2243
g0
(g2162
g2
Ntp2244
Rp2245
(dp2246
g1733
g59
sg1753
I01
sg2166
g2167
sg1754
g1757
sg2168
g2169
sg2170
Nsg1759
Nsg1786
Nsg1763
g1764
sg2171
g2172
sg1743
I01
sg2173
Nsg1768
Nsg165
g26
(g27
(I0
tp2247
g29
tp2248
Rp2249
(I1
(I2
tp2250
g36
I00
S'\x00\x00\x00\x00\x00\x00\x00\x00\x00\x00\x00\x00\x00\x00\xf0?'
p2251
tp2252
bsg166
g26
(g27
(I0
tp2253
g29
tp2254
Rp2255
(I1
(I2
tp2256
g36
I00
S'\x00\x00\x00\x00\x00\x00\x00\x00\x00\x00\x00\x00\x00\x00\x00\x00'
p2257
tp2258
bsg1795
Nsg1769
Nsg1760
Nsg1772
I00
sg2174
Nsg1773
I00
sg1774
(dp2259
sg2176
Nsg1776
I00
sg2177
I00
sg1826
Nsg2178
Nsg2179
F0.5
sg2180
g2181
sg2182
Nsg1904
g1905
sg2183
g0
(g2184
g2
Ntp2260
Rp2261
(dp2262
g2183
VNone
p2263
sg2188
Nsg2189
Nsg60
g0
(g550
g2
Ntp2264
Rp2265
(dp2266
g14
I1
sg84
Nsg58
g59
sg41
(dp2267
sbsg2200
I00
sg2201
g2202
sg2203
Nsg1823
g2204
sg1813
g2205
sg2206
g0
(g2207
g2
Ntp2268
Rp2269
(dp2270
g2211
I00
sg2212
Nsg2213
g26
(g27
(I0
tp2271
g29
tp2272
Rp2273
(I1
(I0
I2
tp2274
g36
I00
S''
p2275
tp2276
bsg2220
I00
sg2221
F0.1111111111111111
sg2222
I1
sg2223
I00
sbsbsg1777
Nsg2224
g2225
sg1807
I01
sg2226
g2227
sg1810
Nsg2228
F0.0
sg1803
I01
sg2229
g26
(g27
(I0
tp2277
g29
tp2278
Rp2279
(I1
(I2
I2
tp2280
g36
I00
S'\x00\x00\x00\x00\x00\x00\x00\x00\x00\x00\x00\x00\x00\x00\x00\x00\x00\x00\x00\x00\x00\x00\x00\x00\x00\x00\x00\x00\x00\x00\xf0?'
p2281
tp2282
bsg1815
V:
p2283
sg2231
(F0.0
F0.0
tp2284
sg1819
I0
sg2233
g2234
sg2235
I0
sg2236
I5
sg1820
I01
sg1822
F1.0
sg2237
g2172
sg2238
I00
sg60
g242
sg2239
I00
sg1787
Nsg1825
Nsg2241
(I0
F1.0
tp2285
sg1805
g1021
sg1804
F0.5
sg1778
Nsg2206
g0
(g2207
g2
Ntp2286
Rp2287
(dp2288
g2211
I00
sg2212
Nsg2213
g2279
sg2220
I00
sg2221
F0.1111111111111111
sg2222
I180
sg2223
I00
sbsbsg1822
Nsg1777
NsS'tick2line'
p2289
g0
(g2162
g2
Ntp2290
Rp2291
(dp2292
g1733
g59
sg1753
I01
sg2166
g2167
sg1754
g1757
sg2168
g2169
sg2170
Nsg1759
Nsg1786
Nsg1763
g1764
sg2171
g2172
sg1743
I01
sg2173
Nsg1768
Nsg165
Nsg166
Nsg1795
Nsg1769
Nsg1760
Nsg1772
I00
sg2174
Nsg1773
I00
sg1774
(dp2293
sg2176
Nsg1776
I00
sg2177
I00
sg1826
Nsg2178
Nsg2179
F0.5
sg2180
g2181
sg2182
Nsg1904
g1905
sg2183
g0
(g2184
g2
Ntp2294
Rp2295
(dp2296
g2183
I3
sg2188
Nsg2189
F1.0
sg60
g0
(g139
g2
Ntp2297
Rp2298
(dp2299
g14
I2
sg84
Nsg83
g26
(g27
(I0
tp2300
g29
tp2301
Rp2302
(I1
(I3
I3
tp2303
g36
I00
S'\x00\x00\x00\x00\x00\x00\xf0?\x00\x00\x00\x00\x00\x00\x00\x00\x00\x00\x00\x00\x00\x00\x00\x00\x00\x00\x00\x00\x00\x00\x00\x00\x00\x00\x00\x00\x00\x00\xf0\xbf\x00\x00\x00\x00\x00\x00\x00\x00\x00\x00\x00\x00\x00\x00\x00\x00\x00\x00\x00\x00\x00\x00\x00\x00\x00\x00\x00\x00\x00\x00\xf0?'
p2304
tp2305
bsg58
g59
sg41
(dp2306
sbsg2200
I00
sg2201
g2202
sg2203
Nsg1823
g2204
sg1813
g2205
sg2206
g2209
sbsg1777
Nsg2224
g2225
sg1807
I01
sg2226
g2227
sg1810
Nsg2228
F4.0
sg1803
I01
sg2229
Nsg1815
VNone
p2307
sg2231
(I0
tp2308
sg1819
I0
sg2233
g2234
sg2235
I0
sg2236
I5
sg1820
I01
sg1822
Nsg2237
g2172
sg2238
I01
sg60
g242
sg2239
I01
sg2240
F2.01
sg1787
Nsg1825
Nsg2241
(I1
tp2309
sg1805
Nsg1804
F1.0
sg1778
Nsg2206
Nsbsg60
NsS'_labelsize'
p2310
g2077
sS'_name'
p2311
Vxtick
p2312
sg1787
Nsg1904
g1905
sg1778
Nsbag0
(g2118
g2
Ntp2313
Rp2314
(dp2315
g1733
g59
sg1784
F0.5
sg1754
g1757
sg2122
I01
sg1753
I01
sg1759
Nsg1819
I0
sg1786
Nsg2123
F4.0
sg2124
g1905
sg2125
I00
sg1887
F4.0
sg1763
g1764
sg2126
g2127
sg2082
g0
(g1749
g2
Ntp2316
Rp2317
(dp2318
g1733
g59
sg1753
I01
sg1754
g1757
sg1759
Nsg1875
g0
(g1876
g2
Ntp2319
Rp2320
(dp2321
g1880
(lp2322
g1882
asg1883
Nsg1884
g1885
sg1886
g1885
sg1887
g2077
sg1889
I400
sg1890
g1885
sbsg1786
Nsg1763
g1764
sg1891
Nsg1743
I01
sg1768
Nsg165
I0
sg166
I0
sg1769
Nsg1760
Nsg1772
I00
sg1773
I00
sg1774
(dp2323
sg1893
Nsg1776
I00
sg1826
Nsg1805
Nsg1825
Nsg1894
Nsg1777
Nsg1810
Nsg1803
I01
sg1895
g2136
sg1897
V
p2324
sg1899
Nsg1795
Nsg1819
I0
sg1900
Nsg1820
I01
sg1822
Nsg1901
F1.2
sg60
g291
sg1902
Nsg1903
I00
sg1787
Nsg1904
g1905
sg1906
g2138
sg1778
Nsbsg1743
I01
sg1768
Nsg2139
I00
sg1769
Nsg1760
Nsg2140
I01
sg1772
I00
sg1773
I00
sg1774
(dp2325
sg2142
(I2
I3
tp2326
sg1776
I00
sg2144
F2.01
sg1826
g7
sg2145
I01
sg1805
g811
sg1825
Nsg2146
g2317
sg2147
g0
(g1749
g2
Ntp2327
Rp2328
(dp2329
g1733
g59
sg1753
I01
sg1754
g1757
sg1759
Nsg1875
g0
(g1876
g2
Ntp2330
Rp2331
(dp2332
g1880
(lp2333
g1882
asg1883
Nsg1884
g1885
sg1886
g1885
sg1887
g2077
sg1889
I400
sg1890
g1885
sbsg1786
Nsg1763
g1764
sg1891
Nsg1743
I01
sg1768
Nsg165
I1
sg166
I0
sg1769
Nsg1760
Nsg1772
I00
sg1773
I00
sg1774
(dp2334
sg1893
Nsg1776
I00
sg1826
Nsg1805
Nsg1825
Nsg1894
Nsg1777
Nsg1810
Nsg1803
I01
sg1895
g2156
sg1897
V
p2335
sg1899
Nsg1795
Nsg1819
I0
sg1900
Nsg1820
I01
sg1822
Nsg1901
F1.2
sg60
g300
sg1902
Nsg1903
I00
sg1787
Nsg1904
g1905
sg1906
g2158
sg1778
Nsbsg1810
Nsg2159
I0
sg1803
I01
sg1795
Nsg2160
F4.0
sg2161
g0
(g2162
g2
Ntp2336
Rp2337
(dp2338
g1733
g59
sg1753
I01
sg2166
g2167
sg1754
g1757
sg2168
g2169
sg2170
Nsg1759
Nsg1786
Nsg1763
g1764
sg2171
g2172
sg1743
I01
sg2173
Nsg1768
Nsg165
Nsg166
Nsg1795
Nsg1769
Nsg1760
Nsg1772
I00
sg2174
Nsg1773
I00
sg1774
(dp2339
sg2176
Nsg1776
I00
sg2177
I00
sg1826
Nsg2178
Nsg2179
F0.5
sg2180
g2181
sg2182
Nsg1904
g1905
sg2183
g0
(g2184
g2
Ntp2340
Rp2341
(dp2342
g2183
I2
sg2188
Nsg2189
F1.0
sg60
g0
(g139
g2
Ntp2343
Rp2344
(dp2345
g14
I2
sg84
Nsg83
g26
(g27
(I0
tp2346
g29
tp2347
Rp2348
(I1
(I3
I3
tp2349
g36
I00
S'\x00\x00\x00\x00\x00\x00\xf0?\x00\x00\x00\x00\x00\x00\x00\x00\x00\x00\x00\x00\x00\x00\x00\x00\x00\x00\x00\x00\x00\x00\x00\x00\x00\x00\x00\x00\x00\x00\xf0?\x00\x00\x00\x00\x00\x00\x00\x00\x00\x00\x00\x00\x00\x00\x00\x00\x00\x00\x00\x00\x00\x00\x00\x00\x00\x00\x00\x00\x00\x00\xf0?'
p2350
tp2351
bsg58
g59
sg41
(dp2352
sbsg2200
I00
sg2201
g2202
sg2203
Nsg1823
g2204
sg1813
g2205
sg2206
g2209
sbsg1777
Nsg2224
g2225
sg1807
I01
sg2226
g2227
sg1810
Nsg2228
F4.0
sg1803
I01
sg2229
Nsg1815
g2230
sg2231
(I0
tp2353
sg1819
I0
sg2233
g2234
sg2235
I0
sg2236
I5
sg1820
I01
sg1822
Nsg2237
g2172
sg2238
I01
sg60
g242
sg2239
I01
sg2240
F2.01
sg1787
Nsg1825
Nsg2241
g2242
sg1805
Nsg1804
F1.0
sg1778
Nsg2206
Nsbsg1820
I00
sg2243
g0
(g2162
g2
Ntp2354
Rp2355
(dp2356
g1733
g59
sg1753
I01
sg2166
g2167
sg1754
g1757
sg2168
g2169
sg2170
Nsg1759
Nsg1786
Nsg1763
g1764
sg2171
g2172
sg1743
I01
sg2173
Nsg1768
Nsg165
g26
(g27
(I0
tp2357
g29
tp2358
Rp2359
(I1
(I2
tp2360
g36
I00
S'\x00\x00\x00\x00\x00\x00\x00\x00\x00\x00\x00\x00\x00\x00\xf0?'
p2361
tp2362
bsg166
g26
(g27
(I0
tp2363
g29
tp2364
Rp2365
(I1
(I2
tp2366
g36
I00
S'\x00\x00\x00\x00\x00\x00\x00\x00\x00\x00\x00\x00\x00\x00\x00\x00'
p2367
tp2368
bsg1795
Nsg1769
Nsg1760
Nsg1772
I00
sg2174
Nsg1773
I00
sg1774
(dp2369
sg2176
Nsg1776
I00
sg2177
I00
sg1826
Nsg2178
Nsg2179
F0.5
sg2180
g2181
sg2182
Nsg1904
g1905
sg2183
g0
(g2184
g2
Ntp2370
Rp2371
(dp2372
g2183
g2263
sg2188
Nsg2189
Nsg60
g0
(g550
g2
Ntp2373
Rp2374
(dp2375
g14
I1
sg84
Nsg58
g59
sg41
(dp2376
sbsg2200
I00
sg2201
g2202
sg2203
Nsg1823
g2204
sg1813
g2205
sg2206
g0
(g2207
g2
Ntp2377
Rp2378
(dp2379
g2211
I00
sg2212
Nsg2213
g26
(g27
(I0
tp2380
g29
tp2381
Rp2382
(I1
(I0
I2
tp2383
g36
I00
g2275
tp2384
bsg2220
I00
sg2221
F0.1111111111111111
sg2222
I1
sg2223
I00
sbsbsg1777
Nsg2224
g2225
sg1807
I01
sg2226
g2227
sg1810
Nsg2228
F0.0
sg1803
I01
sg2229
g26
(g27
(I0
tp2385
g29
tp2386
Rp2387
(I1
(I2
I2
tp2388
g36
I00
S'\x00\x00\x00\x00\x00\x00\x00\x00\x00\x00\x00\x00\x00\x00\x00\x00\x00\x00\x00\x00\x00\x00\x00\x00\x00\x00\x00\x00\x00\x00\xf0?'
p2389
tp2390
bsg1815
g2283
sg2231
g2284
sg1819
I0
sg2233
g2234
sg2235
I0
sg2236
I5
sg1820
I01
sg1822
F1.0
sg2237
g2172
sg2238
I00
sg60
g242
sg2239
I00
sg1787
Nsg1825
Nsg2241
g2285
sg1805
g1231
sg1804
F0.5
sg1778
Nsg2206
g0
(g2207
g2
Ntp2391
Rp2392
(dp2393
g2211
I00
sg2212
Nsg2213
g2387
sg2220
I00
sg2221
F0.1111111111111111
sg2222
I180
sg2223
I00
sbsbsg1822
Nsg1777
Nsg2289
g0
(g2162
g2
Ntp2394
Rp2395
(dp2396
g1733
g59
sg1753
I01
sg2166
g2167
sg1754
g1757
sg2168
g2169
sg2170
Nsg1759
Nsg1786
Nsg1763
g1764
sg2171
g2172
sg1743
I01
sg2173
Nsg1768
Nsg165
Nsg166
Nsg1795
Nsg1769
Nsg1760
Nsg1772
I00
sg2174
Nsg1773
I00
sg1774
(dp2397
sg2176
Nsg1776
I00
sg2177
I00
sg1826
Nsg2178
Nsg2179
F0.5
sg2180
g2181
sg2182
Nsg1904
g1905
sg2183
g0
(g2184
g2
Ntp2398
Rp2399
(dp2400
g2183
I3
sg2188
Nsg2189
F1.0
sg60
g0
(g139
g2
Ntp2401
Rp2402
(dp2403
g14
I2
sg84
Nsg83
g26
(g27
(I0
tp2404
g29
tp2405
Rp2406
(I1
(I3
I3
tp2407
g36
I00
S'\x00\x00\x00\x00\x00\x00\xf0?\x00\x00\x00\x00\x00\x00\x00\x00\x00\x00\x00\x00\x00\x00\x00\x00\x00\x00\x00\x00\x00\x00\x00\x00\x00\x00\x00\x00\x00\x00\xf0\xbf\x00\x00\x00\x00\x00\x00\x00\x00\x00\x00\x00\x00\x00\x00\x00\x00\x00\x00\x00\x00\x00\x00\x00\x00\x00\x00\x00\x00\x00\x00\xf0?'
p2408
tp2409
bsg58
g59
sg41
(dp2410
sbsg2200
I00
sg2201
g2202
sg2203
Nsg1823
g2204
sg1813
g2205
sg2206
g2209
sbsg1777
Nsg2224
g2225
sg1807
I01
sg2226
g2227
sg1810
Nsg2228
F4.0
sg1803
I01
sg2229
Nsg1815
g2307
sg2231
(I0
tp2411
sg1819
I0
sg2233
g2234
sg2235
I0
sg2236
I5
sg1820
I01
sg1822
Nsg2237
g2172
sg2238
I01
sg60
g242
sg2239
I01
sg2240
F2.01
sg1787
Nsg1825
Nsg2241
g2309
sg1805
Nsg1804
F1.0
sg1778
Nsg2206
Nsbsg60
Nsg2310
g2077
sg2311
g2312
sg1787
Nsg1904
g1905
sg1778
NsbasS'isDefault_majloc'
p2412
I01
sg1833
g0
(g1834
g2
Ntp2413
Rp2414
sg1810
Nsg1803
I01
sS'_autolabelpos'
p2415
I01
sg1795
Nsg1819
I0
sS'_lastNumMajorTicks'
p2416
I1
sS'converter'
p2417
Nsg1820
I00
sg1822
NsS'offset_text_position'
p2418
Vbottom
p2419
sg60
NsS'label_position'
p2420
Vbottom
p2421
sg1787
Nsg1825
Nsg2236
I15
sS'minorTicks'
p2422
(lp2423
g0
(g2118
g2
Ntp2424
Rp2425
(dp2426
g1733
g59
sg1784
F0.5
sg1754
g1757
sg2122
I01
sg1753
I01
sg1759
Nsg1819
I0
sg1786
Nsg2123
F4.0
sg2124
g1905
sg2125
I00
sg1887
F2.0
sg1763
g1764
sg2126
g2127
sg2082
g0
(g1749
g2
Ntp2427
Rp2428
(dp2429
g1733
g59
sg1753
I01
sg1754
g1757
sg1759
Nsg1875
g0
(g1876
g2
Ntp2430
Rp2431
(dp2432
g1880
(lp2433
g1882
asg1883
Nsg1884
g1885
sg1886
g1885
sg1887
g2077
sg1889
I400
sg1890
g1885
sbsg1786
Nsg1763
g1764
sg1891
Nsg1743
I01
sg1768
Nsg165
I0
sg166
I0
sg1769
Nsg1760
Nsg1772
I00
sg1773
I00
sg1774
(dp2434
sg1893
Nsg1776
I00
sg1826
Nsg1805
Nsg1825
Nsg1894
Nsg1777
Nsg1810
Nsg1803
I01
sg1895
g2136
sg1897
V
p2435
sg1899
Nsg1795
Nsg1819
I0
sg1900
Nsg1820
I01
sg1822
Nsg1901
F1.2
sg60
g282
sg1902
Nsg1903
I00
sg1787
Nsg1904
g1905
sg1906
g2138
sg1778
Nsbsg1743
I01
sg1768
Nsg2139
I00
sg1769
Nsg1760
Nsg2140
I01
sg1772
I00
sg1773
I00
sg1774
(dp2436
sg2142
(I2
I3
tp2437
sg1776
I00
sg2144
I2
sg1826
g7
sg2145
I01
sg1805
g1161
sg1825
Nsg2146
g2428
sg2147
g0
(g1749
g2
Ntp2438
Rp2439
(dp2440
g1733
g59
sg1753
I01
sg1754
g1757
sg1759
Nsg1875
g0
(g1876
g2
Ntp2441
Rp2442
(dp2443
g1880
(lp2444
g1882
asg1883
Nsg1884
g1885
sg1886
g1885
sg1887
g2077
sg1889
I400
sg1890
g1885
sbsg1786
Nsg1763
g1764
sg1891
Nsg1743
I01
sg1768
Nsg165
I1
sg166
I0
sg1769
Nsg1760
Nsg1772
I00
sg1773
I00
sg1774
(dp2445
sg1893
Nsg1776
I00
sg1826
Nsg1805
Nsg1825
Nsg1894
Nsg1777
Nsg1810
Nsg1803
I01
sg1895
g2156
sg1897
V
p2446
sg1899
Nsg1795
Nsg1819
I0
sg1900
Nsg1820
I01
sg1822
Nsg1901
F1.2
sg60
g264
sg1902
Nsg1903
I00
sg1787
Nsg1904
g1905
sg1906
g2158
sg1778
Nsbsg1810
Nsg2159
I0
sg1803
I01
sg1795
Nsg2160
F4.0
sg2161
g0
(g2162
g2
Ntp2447
Rp2448
(dp2449
g1733
g59
sg1753
I01
sg2166
g2167
sg1754
g1757
sg2168
g2169
sg2170
Nsg1759
Nsg1786
Nsg1763
g1764
sg2171
g2172
sg1743
I01
sg2173
Nsg1768
Nsg165
Nsg166
Nsg1795
Nsg1769
Nsg1760
Nsg1772
I00
sg2174
Nsg1773
I00
sg1774
(dp2450
sg2176
Nsg1776
I00
sg2177
I00
sg1826
Nsg2178
Nsg2179
F0.5
sg2180
g2181
sg2182
Nsg1904
g1905
sg2183
g0
(g2184
g2
Ntp2451
Rp2452
(dp2453
g2183
I2
sg2188
Nsg2189
F1.0
sg60
g0
(g139
g2
Ntp2454
Rp2455
(dp2456
g14
I2
sg84
Nsg83
g26
(g27
(I0
tp2457
g29
tp2458
Rp2459
(I1
(I3
I3
tp2460
g36
I00
S'\x00\x00\x00\x00\x00\x00\xf0?\x00\x00\x00\x00\x00\x00\x00\x00\x00\x00\x00\x00\x00\x00\x00\x00\x00\x00\x00\x00\x00\x00\x00\x00\x00\x00\x00\x00\x00\x00\xf0?\x00\x00\x00\x00\x00\x00\x00\x00\x00\x00\x00\x00\x00\x00\x00\x00\x00\x00\x00\x00\x00\x00\x00\x00\x00\x00\x00\x00\x00\x00\xf0?'
p2461
tp2462
bsg58
g59
sg41
(dp2463
sbsg2200
I00
sg2201
g2202
sg2203
Nsg1823
g2204
sg1813
g2205
sg2206
g2209
sbsg1777
Nsg2224
g2225
sg1807
I01
sg2226
g2227
sg1810
Nsg2228
F2.0
sg1803
I01
sg2229
Nsg1815
g2230
sg2231
(I0
tp2464
sg1819
I0
sg2233
g2234
sg2235
I0
sg2236
I5
sg1820
I01
sg1822
Nsg2237
g2172
sg2238
I01
sg60
g242
sg2239
I01
sg2240
I2
sg1787
Nsg1825
Nsg2241
g2242
sg1805
Nsg1804
F1.0
sg1778
Nsg2206
Nsbsg1820
I00
sg2243
g0
(g2162
g2
Ntp2465
Rp2466
(dp2467
g1733
g59
sg1753
I01
sg2166
g2167
sg1754
g1757
sg2168
g2169
sg2170
Nsg1759
Nsg1786
Nsg1763
g1764
sg2171
g2172
sg1743
I01
sg2173
Nsg1768
Nsg165
g26
(g27
(I0
tp2468
g29
tp2469
Rp2470
(I1
(I2
tp2471
g36
I00
S'\x00\x00\x00\x00\x00\x00\x00\x00\x00\x00\x00\x00\x00\x00\xf0?'
p2472
tp2473
bsg166
g26
(g27
(I0
tp2474
g29
tp2475
Rp2476
(I1
(I2
tp2477
g36
I00
S'\x00\x00\x00\x00\x00\x00\x00\x00\x00\x00\x00\x00\x00\x00\x00\x00'
p2478
tp2479
bsg1795
Nsg1769
Nsg1760
Nsg1772
I00
sg2174
Nsg1773
I00
sg1774
(dp2480
sg2176
Nsg1776
I00
sg2177
I00
sg1826
Nsg2178
Nsg2179
F0.5
sg2180
g2181
sg2182
Nsg1904
g1905
sg2183
g0
(g2184
g2
Ntp2481
Rp2482
(dp2483
g2183
g2263
sg2188
Nsg2189
Nsg60
g0
(g550
g2
Ntp2484
Rp2485
(dp2486
g14
I1
sg84
Nsg58
g59
sg41
(dp2487
sbsg2200
I00
sg2201
g2202
sg2203
Nsg1823
g2204
sg1813
g2205
sg2206
g0
(g2207
g2
Ntp2488
Rp2489
(dp2490
g2211
I00
sg2212
Nsg2213
g26
(g27
(I0
tp2491
g29
tp2492
Rp2493
(I1
(I0
I2
tp2494
g36
I00
g2275
tp2495
bsg2220
I00
sg2221
F0.1111111111111111
sg2222
I1
sg2223
I00
sbsbsg1777
Nsg2224
g2225
sg1807
I01
sg2226
g2227
sg1810
Nsg2228
F0.0
sg1803
I01
sg2229
g26
(g27
(I0
tp2496
g29
tp2497
Rp2498
(I1
(I2
I2
tp2499
g36
I00
S'\x00\x00\x00\x00\x00\x00\x00\x00\x00\x00\x00\x00\x00\x00\x00\x00\x00\x00\x00\x00\x00\x00\x00\x00\x00\x00\x00\x00\x00\x00\xf0?'
p2500
tp2501
bsg1815
g2283
sg2231
g2284
sg1819
I0
sg2233
g2234
sg2235
I0
sg2236
I5
sg1820
I01
sg1822
F1.0
sg2237
g2172
sg2238
I00
sg60
g242
sg2239
I00
sg1787
Nsg1825
Nsg2241
g2285
sg1805
g1527
sg1804
F0.5
sg1778
Nsg2206
g0
(g2207
g2
Ntp2502
Rp2503
(dp2504
g2211
I00
sg2212
Nsg2213
g2498
sg2220
I00
sg2221
F0.1111111111111111
sg2222
I180
sg2223
I00
sbsbsg1822
Nsg1777
Nsg2289
g0
(g2162
g2
Ntp2505
Rp2506
(dp2507
g1733
g59
sg1753
I01
sg2166
g2167
sg1754
g1757
sg2168
g2169
sg2170
Nsg1759
Nsg1786
Nsg1763
g1764
sg2171
g2172
sg1743
I01
sg2173
Nsg1768
Nsg165
Nsg166
Nsg1795
Nsg1769
Nsg1760
Nsg1772
I00
sg2174
Nsg1773
I00
sg1774
(dp2508
sg2176
Nsg1776
I00
sg2177
I00
sg1826
Nsg2178
Nsg2179
F0.5
sg2180
g2181
sg2182
Nsg1904
g1905
sg2183
g0
(g2184
g2
Ntp2509
Rp2510
(dp2511
g2183
I3
sg2188
Nsg2189
F1.0
sg60
g0
(g139
g2
Ntp2512
Rp2513
(dp2514
g14
I2
sg84
Nsg83
g26
(g27
(I0
tp2515
g29
tp2516
Rp2517
(I1
(I3
I3
tp2518
g36
I00
S'\x00\x00\x00\x00\x00\x00\xf0?\x00\x00\x00\x00\x00\x00\x00\x00\x00\x00\x00\x00\x00\x00\x00\x00\x00\x00\x00\x00\x00\x00\x00\x00\x00\x00\x00\x00\x00\x00\xf0\xbf\x00\x00\x00\x00\x00\x00\x00\x00\x00\x00\x00\x00\x00\x00\x00\x00\x00\x00\x00\x00\x00\x00\x00\x00\x00\x00\x00\x00\x00\x00\xf0?'
p2519
tp2520
bsg58
g59
sg41
(dp2521
sbsg2200
I00
sg2201
g2202
sg2203
Nsg1823
g2204
sg1813
g2205
sg2206
g2209
sbsg1777
Nsg2224
g2225
sg1807
I01
sg2226
g2227
sg1810
Nsg2228
F2.0
sg1803
I01
sg2229
Nsg1815
g2307
sg2231
(I0
tp2522
sg1819
I0
sg2233
g2234
sg2235
I0
sg2236
I5
sg1820
I01
sg1822
Nsg2237
g2172
sg2238
I01
sg60
g242
sg2239
I01
sg2240
I2
sg1787
Nsg1825
Nsg2241
g2309
sg1805
Nsg1804
F1.0
sg1778
Nsg2206
Nsbsg60
Nsg2310
g2077
sg2311
g2312
sg1787
Nsg1904
g1905
sg1778
Nsbag0
(g2118
g2
Ntp2523
Rp2524
(dp2525
g1733
g59
sg1784
F0.5
sg1754
g1757
sg2122
I01
sg1753
I01
sg1759
Nsg1819
I0
sg1786
Nsg2123
F4.0
sg2124
g1905
sg2125
I00
sg1887
F2.0
sg1763
g1764
sg2126
g2127
sg2082
g0
(g1749
g2
Ntp2526
Rp2527
(dp2528
g1733
g59
sg1753
I01
sg1754
g1757
sg1759
Nsg1875
g0
(g1876
g2
Ntp2529
Rp2530
(dp2531
g1880
(lp2532
g1882
asg1883
Nsg1884
g1885
sg1886
g1885
sg1887
g2077
sg1889
I400
sg1890
g1885
sbsg1786
Nsg1763
g1764
sg1891
Nsg1743
I01
sg1768
Nsg165
I0
sg166
I0
sg1769
Nsg1760
Nsg1772
I00
sg1773
I00
sg1774
(dp2533
sg1893
Nsg1776
I00
sg1826
Nsg1805
Nsg1825
Nsg1894
Nsg1777
Nsg1810
Nsg1803
I01
sg1895
g2136
sg1897
V
p2534
sg1899
Nsg1795
Nsg1819
I0
sg1900
Nsg1820
I01
sg1822
Nsg1901
F1.2
sg60
g246
sg1902
Nsg1903
I00
sg1787
Nsg1904
g1905
sg1906
g2138
sg1778
Nsbsg1743
I01
sg1768
Nsg2139
I00
sg1769
Nsg1760
Nsg2140
I01
sg1772
I00
sg1773
I00
sg1774
(dp2535
sg2142
(I2
I3
tp2536
sg1776
I00
sg2144
I2
sg1826
g7
sg2145
I01
sg1805
g601
sg1825
Nsg2146
g2527
sg2147
g0
(g1749
g2
Ntp2537
Rp2538
(dp2539
g1733
g59
sg1753
I01
sg1754
g1757
sg1759
Nsg1875
g0
(g1876
g2
Ntp2540
Rp2541
(dp2542
g1880
(lp2543
g1882
asg1883
Nsg1884
g1885
sg1886
g1885
sg1887
g2077
sg1889
I400
sg1890
g1885
sbsg1786
Nsg1763
g1764
sg1891
Nsg1743
I01
sg1768
Nsg165
I1
sg166
I0
sg1769
Nsg1760
Nsg1772
I00
sg1773
I00
sg1774
(dp2544
sg1893
Nsg1776
I00
sg1826
Nsg1805
Nsg1825
Nsg1894
Nsg1777
Nsg1810
Nsg1803
I01
sg1895
g2156
sg1897
V
p2545
sg1899
Nsg1795
Nsg1819
I0
sg1900
Nsg1820
I01
sg1822
Nsg1901
F1.2
sg60
g273
sg1902
Nsg1903
I00
sg1787
Nsg1904
g1905
sg1906
g2158
sg1778
Nsbsg1810
Nsg2159
I0
sg1803
I01
sg1795
Nsg2160
F4.0
sg2161
g0
(g2162
g2
Ntp2546
Rp2547
(dp2548
g1733
g59
sg1753
I01
sg2166
g2167
sg1754
g1757
sg2168
g2169
sg2170
Nsg1759
Nsg1786
Nsg1763
g1764
sg2171
g2172
sg1743
I01
sg2173
Nsg1768
Nsg165
Nsg166
Nsg1795
Nsg1769
Nsg1760
Nsg1772
I00
sg2174
Nsg1773
I00
sg1774
(dp2549
sg2176
Nsg1776
I00
sg2177
I00
sg1826
Nsg2178
Nsg2179
F0.5
sg2180
g2181
sg2182
Nsg1904
g1905
sg2183
g0
(g2184
g2
Ntp2550
Rp2551
(dp2552
g2183
I2
sg2188
Nsg2189
F1.0
sg60
g0
(g139
g2
Ntp2553
Rp2554
(dp2555
g14
I2
sg84
Nsg83
g26
(g27
(I0
tp2556
g29
tp2557
Rp2558
(I1
(I3
I3
tp2559
g36
I00
S'\x00\x00\x00\x00\x00\x00\xf0?\x00\x00\x00\x00\x00\x00\x00\x00\x00\x00\x00\x00\x00\x00\x00\x00\x00\x00\x00\x00\x00\x00\x00\x00\x00\x00\x00\x00\x00\x00\xf0?\x00\x00\x00\x00\x00\x00\x00\x00\x00\x00\x00\x00\x00\x00\x00\x00\x00\x00\x00\x00\x00\x00\x00\x00\x00\x00\x00\x00\x00\x00\xf0?'
p2560
tp2561
bsg58
g59
sg41
(dp2562
sbsg2200
I00
sg2201
g2202
sg2203
Nsg1823
g2204
sg1813
g2205
sg2206
g2209
sbsg1777
Nsg2224
g2225
sg1807
I01
sg2226
g2227
sg1810
Nsg2228
F2.0
sg1803
I01
sg2229
Nsg1815
g2230
sg2231
(I0
tp2563
sg1819
I0
sg2233
g2234
sg2235
I0
sg2236
I5
sg1820
I01
sg1822
Nsg2237
g2172
sg2238
I01
sg60
g242
sg2239
I01
sg2240
I2
sg1787
Nsg1825
Nsg2241
g2242
sg1805
Nsg1804
F1.0
sg1778
Nsg2206
Nsbsg1820
I00
sg2243
g0
(g2162
g2
Ntp2564
Rp2565
(dp2566
g1733
g59
sg1753
I01
sg2166
g2167
sg1754
g1757
sg2168
g2169
sg2170
Nsg1759
Nsg1786
Nsg1763
g1764
sg2171
g2172
sg1743
I01
sg2173
Nsg1768
Nsg165
g26
(g27
(I0
tp2567
g29
tp2568
Rp2569
(I1
(I2
tp2570
g36
I00
S'\x00\x00\x00\x00\x00\x00\x00\x00\x00\x00\x00\x00\x00\x00\xf0?'
p2571
tp2572
bsg166
g26
(g27
(I0
tp2573
g29
tp2574
Rp2575
(I1
(I2
tp2576
g36
I00
S'\x00\x00\x00\x00\x00\x00\x00\x00\x00\x00\x00\x00\x00\x00\x00\x00'
p2577
tp2578
bsg1795
Nsg1769
Nsg1760
Nsg1772
I00
sg2174
Nsg1773
I00
sg1774
(dp2579
sg2176
Nsg1776
I00
sg2177
I00
sg1826
Nsg2178
Nsg2179
F0.5
sg2180
g2181
sg2182
Nsg1904
g1905
sg2183
g0
(g2184
g2
Ntp2580
Rp2581
(dp2582
g2183
g2263
sg2188
Nsg2189
Nsg60
g0
(g550
g2
Ntp2583
Rp2584
(dp2585
g14
I1
sg84
Nsg58
g59
sg41
(dp2586
sbsg2200
I00
sg2201
g2202
sg2203
Nsg1823
g2204
sg1813
g2205
sg2206
g0
(g2207
g2
Ntp2587
Rp2588
(dp2589
g2211
I00
sg2212
Nsg2213
g26
(g27
(I0
tp2590
g29
tp2591
Rp2592
(I1
(I0
I2
tp2593
g36
I00
g2275
tp2594
bsg2220
I00
sg2221
F0.1111111111111111
sg2222
I1
sg2223
I00
sbsbsg1777
Nsg2224
g2225
sg1807
I01
sg2226
g2227
sg1810
Nsg2228
F0.0
sg1803
I01
sg2229
g26
(g27
(I0
tp2595
g29
tp2596
Rp2597
(I1
(I2
I2
tp2598
g36
I00
S'\x00\x00\x00\x00\x00\x00\x00\x00\x00\x00\x00\x00\x00\x00\x00\x00\x00\x00\x00\x00\x00\x00\x00\x00\x00\x00\x00\x00\x00\x00\xf0?'
p2599
tp2600
bsg1815
g2283
sg2231
g2284
sg1819
I0
sg2233
g2234
sg2235
I0
sg2236
I5
sg1820
I01
sg1822
F1.0
sg2237
g2172
sg2238
I00
sg60
g242
sg2239
I00
sg1787
Nsg1825
Nsg2241
g2285
sg1805
g951
sg1804
F0.5
sg1778
Nsg2206
g0
(g2207
g2
Ntp2601
Rp2602
(dp2603
g2211
I00
sg2212
Nsg2213
g2597
sg2220
I00
sg2221
F0.1111111111111111
sg2222
I180
sg2223
I00
sbsbsg1822
Nsg1777
Nsg2289
g0
(g2162
g2
Ntp2604
Rp2605
(dp2606
g1733
g59
sg1753
I01
sg2166
g2167
sg1754
g1757
sg2168
g2169
sg2170
Nsg1759
Nsg1786
Nsg1763
g1764
sg2171
g2172
sg1743
I01
sg2173
Nsg1768
Nsg165
Nsg166
Nsg1795
Nsg1769
Nsg1760
Nsg1772
I00
sg2174
Nsg1773
I00
sg1774
(dp2607
sg2176
Nsg1776
I00
sg2177
I00
sg1826
Nsg2178
Nsg2179
F0.5
sg2180
g2181
sg2182
Nsg1904
g1905
sg2183
g0
(g2184
g2
Ntp2608
Rp2609
(dp2610
g2183
I3
sg2188
Nsg2189
F1.0
sg60
g0
(g139
g2
Ntp2611
Rp2612
(dp2613
g14
I2
sg84
Nsg83
g26
(g27
(I0
tp2614
g29
tp2615
Rp2616
(I1
(I3
I3
tp2617
g36
I00
S'\x00\x00\x00\x00\x00\x00\xf0?\x00\x00\x00\x00\x00\x00\x00\x00\x00\x00\x00\x00\x00\x00\x00\x00\x00\x00\x00\x00\x00\x00\x00\x00\x00\x00\x00\x00\x00\x00\xf0\xbf\x00\x00\x00\x00\x00\x00\x00\x00\x00\x00\x00\x00\x00\x00\x00\x00\x00\x00\x00\x00\x00\x00\x00\x00\x00\x00\x00\x00\x00\x00\xf0?'
p2618
tp2619
bsg58
g59
sg41
(dp2620
sbsg2200
I00
sg2201
g2202
sg2203
Nsg1823
g2204
sg1813
g2205
sg2206
g2209
sbsg1777
Nsg2224
g2225
sg1807
I01
sg2226
g2227
sg1810
Nsg2228
F2.0
sg1803
I01
sg2229
Nsg1815
g2307
sg2231
(I0
tp2621
sg1819
I0
sg2233
g2234
sg2235
I0
sg2236
I5
sg1820
I01
sg1822
Nsg2237
g2172
sg2238
I01
sg60
g242
sg2239
I01
sg2240
I2
sg1787
Nsg1825
Nsg2241
g2309
sg1805
Nsg1804
F1.0
sg1778
Nsg2206
Nsbsg60
Nsg2310
g2077
sg2311
g2312
sg1787
Nsg1904
g1905
sg1778
Nsbasg1778
NsS'_minor_tick_kw'
p2622
(dp2623
sS'isDefault_minfmt'
p2624
I01
sbsS'_navigate_mode'
p2625
Nsg1778
NsS'transAxes'
p2626
g81
sS'_connected'
p2627
(dp2628
sS'fmt_ydata'
p2629
NsS'dataLim'
p2630
g0
(g21
g2
Ntp2631
Rp2632
(dp2633
g14
I0
sg25
g26
(g27
(I0
tp2634
g29
tp2635
Rp2636
(I1
(I2
tp2637
g36
I00
S'\x88\xc6\xfa\xd0X\x1f\xca?\x9a\xfd\xb77\x8d\xf3\xa2?'
p2638
tp2639
bsg41
(dp2640
sg43
g26
(g27
(I0
tp2641
g29
tp2642
Rp2643
(I1
(I2
I2
tp2644
g36
I00
S'\x00\x00\x00\x00\x00\x00\xf0\x7f\x00\x00\x00\x00\x00\x00\xf0\x7f\x00\x00\x00\x00\x00\x00\xf0\xff\x00\x00\x00\x00\x00\x00\xf0\xff'
p2645
tp2646
bsg50
g26
(g27
(I0
tp2647
g29
tp2648
Rp2649
(I1
(I2
I2
tp2650
g36
I00
S'\x00\x00\x00\x00\x00\x00\x00\x00:\x03\n\xb1\x98\xfe\xef\xbf\x00\x00\x00\x00\x00\x00$@d\x19\xca(U\xf0\xef?'
p2651
tp2652
bsg57
I01
sg58
g59
sbsS'transData'
p2653
g70
sg1777
NsS'_sharey'
p2654
NsS'_sharex'
p2655
NsS'axesPatch'
p2656
g1959
sS'_ymargin'
p2657
F0.0
sS'_axes_locator'
p2658
NsS'numCols'
p2659
I1
sg1822
Nsg1837
I00
sS'yaxis'
p2660
g0
(cmatplotlib.axis
YAxis
p2661
g2
Ntp2662
Rp2663
(dp2664
g1733
g59
sg2030
g0
(g2031
g2
Ntp2665
Rp2666
(dp2667
g2035
g0
(g2036
g2
Ntp2668
Rp2669
(dp2670
g2040
I00
sg2041
I9
sg2042
(lp2671
I1
aI2
aI5
aI10
asg2044
Nsg2045
I00
sg2046
I01
sg2047
g2663
sbsg2048
g0
(g2049
g2
Ntp2672
Rp2673
(dp2674
g2053
g2054
sg2055
I0
sg2056
I00
sg2057
g59
sg2058
I00
sg2059
I01
sg2060
I0
sg1902
I00
sg2061
I01
sg2047
g2663
sbsbsg2062
I01
sg2063
g0
(g2064
g2
Ntp2675
Rp2676
sg1754
g1757
sg1753
I01
sg2067
I00
sg1759
Nsg1786
Nsg2068
I00
sg1763
g1764
sg1743
I01
sg1768
Nsg2069
g0
(g1749
g2
Ntp2677
Rp2678
(dp2679
g1733
g59
sg1753
I01
sg1754
g1757
sg1759
Nsg1875
g0
(g1876
g2
Ntp2680
Rp2681
(dp2682
g1880
(lp2683
g1882
asg1883
Nsg1884
g1885
sg1886
g1885
sg1887
g2077
sg1889
I400
sg1890
g1885
sbsg1786
Nsg1763
g1764
sg1891
Nsg1743
I01
sg1768
Nsg165
F0.5
sg166
I0
sg1769
Nsg1760
Nsg1772
I00
sg1773
I00
sg1774
(dp2684
sg1893
Nsg1776
I00
sg1826
Nsg1805
Nsg1825
Nsg1894
Nsg1777
Nsg1810
Nsg1803
I01
sg1895
Vbaseline
p2685
sg1897
V
p2686
sg1899
Nsg1795
Nsg1819
I0
sg1900
Nsg1820
I01
sg1822
Nsg1901
F1.2
sg60
g1405
sg1902
Nsg1903
I00
sg1787
Nsg1904
g1905
sg1906
Vleft
p2687
sg1778
Nsbsg1769
Nsg1760
Nsg2082
g0
(g1749
g2
Ntp2688
Rp2689
(dp2690
g1733
g59
sg1753
I01
sg1754
g1757
sg1759
Nsg1875
g0
(g1876
g2
Ntp2691
Rp2692
(dp2693
g1880
(lp2694
g1882
asg1883
Nsg1884
g1885
sg1886
g1885
sg1887
g2077
sg1889
I400
sg1890
g1885
sbsg1786
Nsg1763
g1764
sg1891
Nsg1743
I01
sg1768
Nsg165
F0.5
sg166
I0
sg1769
Nsg1760
Nsg1772
I00
sg1773
I00
sg1774
(dp2695
sg1893
Nsg1776
I00
sg1826
Nsg1805
Nsg1825
Nsg1894
Vanchor
p2696
sg1777
Nsg1810
Nsg1803
I01
sg1895
Vbottom
p2697
sg1897
V
p2698
sg1899
Nsg1795
Nsg1819
I0
sg1900
Vvertical
p2699
sg1820
I01
sg1822
Nsg1901
F1.2
sg60
g1257
sg1902
Nsg1903
I00
sg1787
Nsg1904
g1905
sg1906
Vcenter
p2700
sg1778
Nsbsg1772
I00
sg2094
I01
sg1773
I00
sg1774
(dp2701
sg2096
Nsg1776
I00
sg2097
g0
(g2031
g2
Ntp2702
Rp2703
(dp2704
g2035
g0
(g2101
g2
Ntp2705
Rp2706
(dp2707
g2047
g2663
sbsg2048
g0
(g2105
g2
Ntp2708
Rp2709
(dp2710
g2047
g2663
sbsbsg1826
g7
sg2109
(dp2711
g2111
I00
ssg2112
I01
sg1805
g1379
sg1777
Nsg2113
I00
sg2114
I1
sg2115
F5.0
sg2116
(lp2712
g0
(cmatplotlib.axis
YTick
p2713
g2
Ntp2714
Rp2715
(dp2716
g1733
g59
sg1784
F0.5
sg1754
g1757
sg2122
I01
sg1753
I01
sg1759
Nsg1819
I0
sg1786
Nsg2123
F4.0
sg2124
g1905
sg2125
I00
sg1887
F4.0
sg1763
g1764
sg2126
g2127
sg2082
g0
(g1749
g2
Ntp2717
Rp2718
(dp2719
g1733
g59
sg1753
I01
sg1754
g1757
sg1759
Nsg1875
g0
(g1876
g2
Ntp2720
Rp2721
(dp2722
g1880
(lp2723
g1882
asg1883
Nsg1884
g1885
sg1886
g1885
sg1887
g2077
sg1889
I400
sg1890
g1885
sbsg1786
Nsg1763
g1764
sg1891
Nsg1743
I01
sg1768
Nsg165
I0
sg166
I0
sg1769
Nsg1760
Nsg1772
I00
sg1773
I00
sg1774
(dp2724
sg1893
Nsg1776
I00
sg1826
Nsg1805
Nsg1825
Nsg1894
Nsg1777
Nsg1810
Nsg1803
I01
sg1895
Vcenter
p2725
sg1897
V
p2726
sg1899
Nsg1795
Nsg1819
I0
sg1900
Nsg1820
I01
sg1822
Nsg1901
F1.2
sg60
g179
sg1902
Nsg1903
I00
sg1787
Nsg1904
g1905
sg1906
Vright
p2727
sg1778
Nsbsg1743
I01
sg1768
Nsg2139
I00
sg1769
Nsg1760
Nsg2140
I01
sg1772
I00
sg1773
I00
sg1774
(dp2728
sg2142
(I1
I0
tp2729
sg1776
I00
sg2144
F2.01
sg1826
g7
sg2145
I01
sg1805
g1309
sg1825
Nsg2146
g2718
sg2147
g0
(g1749
g2
Ntp2730
Rp2731
(dp2732
g1733
g59
sg1753
I01
sg1754
g1757
sg1759
Nsg1875
g0
(g1876
g2
Ntp2733
Rp2734
(dp2735
g1880
(lp2736
g1882
asg1883
Nsg1884
g1885
sg1886
g1885
sg1887
g2077
sg1889
I400
sg1890
g1885
sbsg1786
Nsg1763
g1764
sg1891
Nsg1743
I01
sg1768
Nsg165
I0
sg166
I1
sg1769
Nsg1760
Nsg1772
I00
sg1773
I00
sg1774
(dp2737
sg1893
Nsg1776
I00
sg1826
Nsg1805
Nsg1825
Nsg1894
Nsg1777
Nsg1810
Nsg1803
I01
sg1895
Vcenter
p2738
sg1897
V
p2739
sg1899
Nsg1795
Nsg1819
I0
sg1900
Nsg1820
I01
sg1822
Nsg1901
F1.2
sg60
g206
sg1902
Nsg1903
I00
sg1787
Nsg1904
g1905
sg1906
Vleft
p2740
sg1778
Nsbsg1810
Nsg2159
I0
sg1803
I01
sg1795
Nsg2160
F4.0
sg2161
g0
(g2162
g2
Ntp2741
Rp2742
(dp2743
g1733
g59
sg1753
I01
sg2166
g2167
sg1754
g1757
sg2168
g2169
sg2170
Nsg1759
Nsg1786
Nsg1763
g1764
sg2171
g2172
sg1743
I01
sg2173
Nsg1768
Nsg165
Nsg166
Nsg1795
Nsg1769
Nsg1760
Nsg1772
I00
sg2174
Nsg1773
I00
sg1774
(dp2744
sg2176
Nsg1776
I00
sg2177
I00
sg1826
Nsg2178
Nsg2179
F0.5
sg2180
g2181
sg2182
Nsg1904
g1905
sg2183
g0
(g2184
g2
Ntp2745
Rp2746
(dp2747
g2183
I1
sg2188
Nsg2189
F1.0
sg60
g0
(g139
g2
Ntp2748
Rp2749
(dp2750
g14
I2
sg84
Nsg83
g26
(g27
(I0
tp2751
g29
tp2752
Rp2753
(I1
(I3
I3
tp2754
g36
I00
S'\x00\x00\x00\x00\x00\x00\xf0?\x00\x00\x00\x00\x00\x00\x00\x00\x00\x00\x00\x00\x00\x00\x00\x00\x00\x00\x00\x00\x00\x00\x00\x00\x00\x00\x00\x00\x00\x00\xf0?\x00\x00\x00\x00\x00\x00\x00\x00\x00\x00\x00\x00\x00\x00\x00\x00\x00\x00\x00\x00\x00\x00\x00\x00\x00\x00\x00\x00\x00\x00\xf0?'
p2755
tp2756
bsg58
g59
sg41
(dp2757
sbsg2200
I00
sg2201
g2202
sg2203
Nsg1823
g2204
sg1813
g2205
sg2206
g0
(g2207
g2
Ntp2758
Rp2759
(dp2760
g2211
I00
sg2212
Nsg2213
g26
(g27
(I0
tp2761
g29
tp2762
Rp2763
(I1
(I2
I2
tp2764
g36
I00
S'\x00\x00\x00\x00\x00\x00\x00\x00\x00\x00\x00\x00\x00\x00\x00\x00\x00\x00\x00\x00\x00\x00\xf0?\x00\x00\x00\x00\x00\x00\x00\x00'
p2765
tp2766
bsg2220
I00
sg2221
F0.1111111111111111
sg2222
I1
sg2223
I00
sbsbsg1777
Nsg2224
g2225
sg1807
I01
sg2226
g2227
sg1810
Nsg2228
F4.0
sg1803
I01
sg2229
Nsg1815
VNone
p2767
sg2231
(I0
tp2768
sg1819
I0
sg2233
g2234
sg2235
I0
sg2236
I5
sg1820
I01
sg1822
Nsg2237
g2172
sg2238
I01
sg60
g163
sg2239
I01
sg2240
F2.01
sg1787
Nsg1825
Nsg2241
(I0
tp2769
sg1805
Nsg1804
F1.0
sg1778
Nsg2206
Nsbsg1820
I00
sg2243
g0
(g2162
g2
Ntp2770
Rp2771
(dp2772
g1733
g59
sg1753
I01
sg2166
g2167
sg1754
g1757
sg2168
g2169
sg2170
Nsg1759
Nsg1786
Nsg1763
g1764
sg2171
g2172
sg1743
I01
sg2173
Nsg1768
Nsg165
g26
(g27
(I0
tp2773
g29
tp2774
Rp2775
(I1
(I2
tp2776
g36
I00
S'\x00\x00\x00\x00\x00\x00\x00\x00\x00\x00\x00\x00\x00\x00\x00\x00'
p2777
tp2778
bsg166
g26
(g27
(I0
tp2779
g29
tp2780
Rp2781
(I1
(I2
tp2782
g36
I00
S'\x00\x00\x00\x00\x00\x00\x00\x00\x00\x00\x00\x00\x00\x00\xf0?'
p2783
tp2784
bsg1795
Nsg1769
Nsg1760
Nsg1772
I00
sg2174
Nsg1773
I00
sg1774
(dp2785
sg2176
Nsg1776
I00
sg2177
I00
sg1826
Nsg2178
Nsg2179
F0.5
sg2180
g2181
sg2182
Nsg1904
g1905
sg2183
g0
(g2184
g2
Ntp2786
Rp2787
(dp2788
g2183
g2263
sg2188
Nsg2189
Nsg60
g0
(g550
g2
Ntp2789
Rp2790
(dp2791
g14
I1
sg84
Nsg58
g59
sg41
(dp2792
sbsg2200
I00
sg2201
g2202
sg2203
Nsg1823
g2204
sg1813
g2205
sg2206
g0
(g2207
g2
Ntp2793
Rp2794
(dp2795
g2211
I00
sg2212
Nsg2213
g26
(g27
(I0
tp2796
g29
tp2797
Rp2798
(I1
(I0
I2
tp2799
g36
I00
g2275
tp2800
bsg2220
I00
sg2221
F0.1111111111111111
sg2222
I1
sg2223
I00
sbsbsg1777
Nsg2224
g2225
sg1807
I01
sg2226
g2227
sg1810
Nsg2228
F0.0
sg1803
I01
sg2229
g26
(g27
(I0
tp2801
g29
tp2802
Rp2803
(I1
(I2
I2
tp2804
g36
I00
S'\x00\x00\x00\x00\x00\x00\x00\x00\x00\x00\x00\x00\x00\x00\x00\x00\x00\x00\x00\x00\x00\x00\xf0?\x00\x00\x00\x00\x00\x00\x00\x00'
p2805
tp2806
bsg1815
g2283
sg2231
(I0
I1
tp2807
sg1819
I0
sg2233
g2234
sg2235
I0
sg2236
I5
sg1820
I01
sg1822
F1.0
sg2237
g2172
sg2238
I00
sg60
g163
sg2239
I00
sg1787
Nsg1825
Nsg2241
(I0
I0
tp2808
sg1805
g381
sg1804
F0.5
sg1778
Nsg2206
g0
(g2207
g2
Ntp2809
Rp2810
(dp2811
g2211
I00
sg2212
Nsg2213
g2803
sg2220
I00
sg2221
F0.1111111111111111
sg2222
I180
sg2223
I00
sbsbsg1822
Nsg1777
Nsg2289
g0
(g2162
g2
Ntp2812
Rp2813
(dp2814
g1733
g59
sg1753
I01
sg2166
g2167
sg1754
g1757
sg2168
g2169
sg2170
Nsg1759
Nsg1786
Nsg1763
g1764
sg2171
g2172
sg1743
I01
sg2173
Nsg1768
Nsg165
Nsg166
Nsg1795
Nsg1769
Nsg1760
Nsg1772
I00
sg2174
Nsg1773
I00
sg1774
(dp2815
sg2176
Nsg1776
I00
sg2177
I00
sg1826
Nsg2178
Nsg2179
F0.5
sg2180
g2181
sg2182
Nsg1904
g1905
sg2183
g0
(g2184
g2
Ntp2816
Rp2817
(dp2818
g2183
I0
sg2188
Nsg2189
F1.0
sg60
g0
(g139
g2
Ntp2819
Rp2820
(dp2821
g14
I2
sg84
Nsg83
g26
(g27
(I0
tp2822
g29
tp2823
Rp2824
(I1
(I3
I3
tp2825
g36
I00
S'\x00\x00\x00\x00\x00\x00\xf0\xbf\x00\x00\x00\x00\x00\x00\x00\x00\x00\x00\x00\x00\x00\x00\x00\x00\x00\x00\x00\x00\x00\x00\x00\x00\x00\x00\x00\x00\x00\x00\xf0?\x00\x00\x00\x00\x00\x00\x00\x00\x00\x00\x00\x00\x00\x00\x00\x00\x00\x00\x00\x00\x00\x00\x00\x00\x00\x00\x00\x00\x00\x00\xf0?'
p2826
tp2827
bsg58
g59
sg41
(dp2828
sbsg2200
I00
sg2201
g2202
sg2203
Nsg1823
g2204
sg1813
g2205
sg2206
g2759
sbsg1777
Nsg2224
g2225
sg1807
I01
sg2226
g2227
sg1810
Nsg2228
F4.0
sg1803
I01
sg2229
Nsg1815
VNone
p2829
sg2231
(I1
tp2830
sg1819
I0
sg2233
g2234
sg2235
I0
sg2236
I5
sg1820
I01
sg1822
Nsg2237
g2172
sg2238
I01
sg60
g163
sg2239
I01
sg2240
F2.01
sg1787
Nsg1825
Nsg2241
(I0
tp2831
sg1805
Nsg1804
F1.0
sg1778
Nsg2206
Nsbsg60
Nsg2310
g2077
sg2311
Vytick
p2832
sg1787
Nsg1904
g1905
sg1778
Nsbag0
(g2713
g2
Ntp2833
Rp2834
(dp2835
g1733
g59
sg1784
F0.5
sg1754
g1757
sg2122
I01
sg1753
I01
sg1759
Nsg1819
I0
sg1786
Nsg2123
F4.0
sg2124
g1905
sg2125
I00
sg1887
F4.0
sg1763
g1764
sg2126
g2127
sg2082
g0
(g1749
g2
Ntp2836
Rp2837
(dp2838
g1733
g59
sg1753
I01
sg1754
g1757
sg1759
Nsg1875
g0
(g1876
g2
Ntp2839
Rp2840
(dp2841
g1880
(lp2842
g1882
asg1883
Nsg1884
g1885
sg1886
g1885
sg1887
g2077
sg1889
I400
sg1890
g1885
sbsg1786
Nsg1763
g1764
sg1891
Nsg1743
I01
sg1768
Nsg165
I0
sg166
I0
sg1769
Nsg1760
Nsg1772
I00
sg1773
I00
sg1774
(dp2843
sg1893
Nsg1776
I00
sg1826
Nsg1805
Nsg1825
Nsg1894
Nsg1777
Nsg1810
Nsg1803
I01
sg1895
g2725
sg1897
V
p2844
sg1899
Nsg1795
Nsg1819
I0
sg1900
Nsg1820
I01
sg1822
Nsg1901
F1.2
sg60
g159
sg1902
Nsg1903
I00
sg1787
Nsg1904
g1905
sg1906
g2727
sg1778
Nsbsg1743
I01
sg1768
Nsg2139
I00
sg1769
Nsg1760
Nsg2140
I01
sg1772
I00
sg1773
I00
sg1774
(dp2845
sg2142
(I1
I0
tp2846
sg1776
I00
sg2144
F2.01
sg1826
g7
sg2145
I01
sg1805
g881
sg1825
Nsg2146
g2837
sg2147
g0
(g1749
g2
Ntp2847
Rp2848
(dp2849
g1733
g59
sg1753
I01
sg1754
g1757
sg1759
Nsg1875
g0
(g1876
g2
Ntp2850
Rp2851
(dp2852
g1880
(lp2853
g1882
asg1883
Nsg1884
g1885
sg1886
g1885
sg1887
g2077
sg1889
I400
sg1890
g1885
sbsg1786
Nsg1763
g1764
sg1891
Nsg1743
I01
sg1768
Nsg165
I0
sg166
I1
sg1769
Nsg1760
Nsg1772
I00
sg1773
I00
sg1774
(dp2854
sg1893
Nsg1776
I00
sg1826
Nsg1805
Nsg1825
Nsg1894
Nsg1777
Nsg1810
Nsg1803
I01
sg1895
g2738
sg1897
V
p2855
sg1899
Nsg1795
Nsg1819
I0
sg1900
Nsg1820
I01
sg1822
Nsg1901
F1.2
sg60
g197
sg1902
Nsg1903
I00
sg1787
Nsg1904
g1905
sg1906
g2740
sg1778
Nsbsg1810
Nsg2159
I0
sg1803
I01
sg1795
Nsg2160
F4.0
sg2161
g0
(g2162
g2
Ntp2856
Rp2857
(dp2858
g1733
g59
sg1753
I01
sg2166
g2167
sg1754
g1757
sg2168
g2169
sg2170
Nsg1759
Nsg1786
Nsg1763
g1764
sg2171
g2172
sg1743
I01
sg2173
Nsg1768
Nsg165
Nsg166
Nsg1795
Nsg1769
Nsg1760
Nsg1772
I00
sg2174
Nsg1773
I00
sg1774
(dp2859
sg2176
Nsg1776
I00
sg2177
I00
sg1826
Nsg2178
Nsg2179
F0.5
sg2180
g2181
sg2182
Nsg1904
g1905
sg2183
g0
(g2184
g2
Ntp2860
Rp2861
(dp2862
g2183
I1
sg2188
Nsg2189
F1.0
sg60
g0
(g139
g2
Ntp2863
Rp2864
(dp2865
g14
I2
sg84
Nsg83
g26
(g27
(I0
tp2866
g29
tp2867
Rp2868
(I1
(I3
I3
tp2869
g36
I00
S'\x00\x00\x00\x00\x00\x00\xf0?\x00\x00\x00\x00\x00\x00\x00\x00\x00\x00\x00\x00\x00\x00\x00\x00\x00\x00\x00\x00\x00\x00\x00\x00\x00\x00\x00\x00\x00\x00\xf0?\x00\x00\x00\x00\x00\x00\x00\x00\x00\x00\x00\x00\x00\x00\x00\x00\x00\x00\x00\x00\x00\x00\x00\x00\x00\x00\x00\x00\x00\x00\xf0?'
p2870
tp2871
bsg58
g59
sg41
(dp2872
sbsg2200
I00
sg2201
g2202
sg2203
Nsg1823
g2204
sg1813
g2205
sg2206
g2759
sbsg1777
Nsg2224
g2225
sg1807
I01
sg2226
g2227
sg1810
Nsg2228
F4.0
sg1803
I01
sg2229
Nsg1815
g2767
sg2231
g2768
sg1819
I0
sg2233
g2234
sg2235
I0
sg2236
I5
sg1820
I01
sg1822
Nsg2237
g2172
sg2238
I01
sg60
g163
sg2239
I01
sg2240
F2.01
sg1787
Nsg1825
Nsg2241
(I0
tp2873
sg1805
Nsg1804
F1.0
sg1778
Nsg2206
Nsbsg1820
I00
sg2243
g0
(g2162
g2
Ntp2874
Rp2875
(dp2876
g1733
g59
sg1753
I01
sg2166
g2167
sg1754
g1757
sg2168
g2169
sg2170
Nsg1759
Nsg1786
Nsg1763
g1764
sg2171
g2172
sg1743
I01
sg2173
Nsg1768
Nsg165
g26
(g27
(I0
tp2877
g29
tp2878
Rp2879
(I1
(I2
tp2880
g36
I00
S'\x00\x00\x00\x00\x00\x00\x00\x00\x00\x00\x00\x00\x00\x00\x00\x00'
p2881
tp2882
bsg166
g26
(g27
(I0
tp2883
g29
tp2884
Rp2885
(I1
(I2
tp2886
g36
I00
S'\x00\x00\x00\x00\x00\x00\x00\x00\x00\x00\x00\x00\x00\x00\xf0?'
p2887
tp2888
bsg1795
Nsg1769
Nsg1760
Nsg1772
I00
sg2174
Nsg1773
I00
sg1774
(dp2889
sg2176
Nsg1776
I00
sg2177
I00
sg1826
Nsg2178
Nsg2179
F0.5
sg2180
g2181
sg2182
Nsg1904
g1905
sg2183
g0
(g2184
g2
Ntp2890
Rp2891
(dp2892
g2183
g2263
sg2188
Nsg2189
Nsg60
g0
(g550
g2
Ntp2893
Rp2894
(dp2895
g14
I1
sg84
Nsg58
g59
sg41
(dp2896
sbsg2200
I00
sg2201
g2202
sg2203
Nsg1823
g2204
sg1813
g2205
sg2206
g0
(g2207
g2
Ntp2897
Rp2898
(dp2899
g2211
I00
sg2212
Nsg2213
g26
(g27
(I0
tp2900
g29
tp2901
Rp2902
(I1
(I0
I2
tp2903
g36
I00
g2275
tp2904
bsg2220
I00
sg2221
F0.1111111111111111
sg2222
I1
sg2223
I00
sbsbsg1777
Nsg2224
g2225
sg1807
I01
sg2226
g2227
sg1810
Nsg2228
F0.0
sg1803
I01
sg2229
g26
(g27
(I0
tp2905
g29
tp2906
Rp2907
(I1
(I2
I2
tp2908
g36
I00
S'\x00\x00\x00\x00\x00\x00\x00\x00\x00\x00\x00\x00\x00\x00\x00\x00\x00\x00\x00\x00\x00\x00\xf0?\x00\x00\x00\x00\x00\x00\x00\x00'
p2909
tp2910
bsg1815
g2283
sg2231
g2807
sg1819
I0
sg2233
g2234
sg2235
I0
sg2236
I5
sg1820
I01
sg1822
F1.0
sg2237
g2172
sg2238
I00
sg60
g163
sg2239
I00
sg1787
Nsg1825
Nsg2241
g2808
sg1805
g521
sg1804
F0.5
sg1778
Nsg2206
g0
(g2207
g2
Ntp2911
Rp2912
(dp2913
g2211
I00
sg2212
Nsg2213
g2907
sg2220
I00
sg2221
F0.1111111111111111
sg2222
I180
sg2223
I00
sbsbsg1822
Nsg1777
Nsg2289
g0
(g2162
g2
Ntp2914
Rp2915
(dp2916
g1733
g59
sg1753
I01
sg2166
g2167
sg1754
g1757
sg2168
g2169
sg2170
Nsg1759
Nsg1786
Nsg1763
g1764
sg2171
g2172
sg1743
I01
sg2173
Nsg1768
Nsg165
Nsg166
Nsg1795
Nsg1769
Nsg1760
Nsg1772
I00
sg2174
Nsg1773
I00
sg1774
(dp2917
sg2176
Nsg1776
I00
sg2177
I00
sg1826
Nsg2178
Nsg2179
F0.5
sg2180
g2181
sg2182
Nsg1904
g1905
sg2183
g0
(g2184
g2
Ntp2918
Rp2919
(dp2920
g2183
I0
sg2188
Nsg2189
F1.0
sg60
g0
(g139
g2
Ntp2921
Rp2922
(dp2923
g14
I2
sg84
Nsg83
g26
(g27
(I0
tp2924
g29
tp2925
Rp2926
(I1
(I3
I3
tp2927
g36
I00
S'\x00\x00\x00\x00\x00\x00\xf0\xbf\x00\x00\x00\x00\x00\x00\x00\x00\x00\x00\x00\x00\x00\x00\x00\x00\x00\x00\x00\x00\x00\x00\x00\x00\x00\x00\x00\x00\x00\x00\xf0?\x00\x00\x00\x00\x00\x00\x00\x00\x00\x00\x00\x00\x00\x00\x00\x00\x00\x00\x00\x00\x00\x00\x00\x00\x00\x00\x00\x00\x00\x00\xf0?'
p2928
tp2929
bsg58
g59
sg41
(dp2930
sbsg2200
I00
sg2201
g2202
sg2203
Nsg1823
g2204
sg1813
g2205
sg2206
g2759
sbsg1777
Nsg2224
g2225
sg1807
I01
sg2226
g2227
sg1810
Nsg2228
F4.0
sg1803
I01
sg2229
Nsg1815
g2829
sg2231
g2830
sg1819
I0
sg2233
g2234
sg2235
I0
sg2236
I5
sg1820
I01
sg1822
Nsg2237
g2172
sg2238
I01
sg60
g163
sg2239
I01
sg2240
F2.01
sg1787
Nsg1825
Nsg2241
(I0
tp2931
sg1805
Nsg1804
F1.0
sg1778
Nsg2206
Nsbsg60
Nsg2310
g2077
sg2311
g2832
sg1787
Nsg1904
g1905
sg1778
Nsbasg2412
I01
sg1833
g0
(g1834
g2
Ntp2932
Rp2933
sg1810
Nsg1803
I01
sg2415
I01
sg1795
Nsg1819
I0
sg2416
I1
sg2417
Nsg1820
I00
sg1822
Nsg2418
g2687
sg60
Nsg2420
Vleft
p2934
sg1787
Nsg1825
Nsg2236
I15
sg2422
(lp2935
g0
(g2713
g2
Ntp2936
Rp2937
(dp2938
g1733
g59
sg1784
F0.5
sg1754
g1757
sg2122
I01
sg1753
I01
sg1759
Nsg1819
I0
sg1786
Nsg2123
F4.0
sg2124
g1905
sg2125
I00
sg1887
F2.0
sg1763
g1764
sg2126
g2127
sg2082
g0
(g1749
g2
Ntp2939
Rp2940
(dp2941
g1733
g59
sg1753
I01
sg1754
g1757
sg1759
Nsg1875
g0
(g1876
g2
Ntp2942
Rp2943
(dp2944
g1880
(lp2945
g1882
asg1883
Nsg1884
g1885
sg1886
g1885
sg1887
g2077
sg1889
I400
sg1890
g1885
sbsg1786
Nsg1763
g1764
sg1891
Nsg1743
I01
sg1768
Nsg165
I0
sg166
I0
sg1769
Nsg1760
Nsg1772
I00
sg1773
I00
sg1774
(dp2946
sg1893
Nsg1776
I00
sg1826
Nsg1805
Nsg1825
Nsg1894
Nsg1777
Nsg1810
Nsg1803
I01
sg1895
g2725
sg1897
V
p2947
sg1899
Nsg1795
Nsg1819
I0
sg1900
Nsg1820
I01
sg1822
Nsg1901
F1.2
sg60
g215
sg1902
Nsg1903
I00
sg1787
Nsg1904
g1905
sg1906
g2727
sg1778
Nsbsg1743
I01
sg1768
Nsg2139
I00
sg1769
Nsg1760
Nsg2140
I01
sg1772
I00
sg1773
I00
sg1774
(dp2948
sg2142
(I1
I0
tp2949
sg1776
I00
sg2144
I2
sg1826
g7
sg2145
I01
sg1805
g1091
sg1825
Nsg2146
g2940
sg2147
g0
(g1749
g2
Ntp2950
Rp2951
(dp2952
g1733
g59
sg1753
I01
sg1754
g1757
sg1759
Nsg1875
g0
(g1876
g2
Ntp2953
Rp2954
(dp2955
g1880
(lp2956
g1882
asg1883
Nsg1884
g1885
sg1886
g1885
sg1887
g2077
sg1889
I400
sg1890
g1885
sbsg1786
Nsg1763
g1764
sg1891
Nsg1743
I01
sg1768
Nsg165
I0
sg166
I1
sg1769
Nsg1760
Nsg1772
I00
sg1773
I00
sg1774
(dp2957
sg1893
Nsg1776
I00
sg1826
Nsg1805
Nsg1825
Nsg1894
Nsg1777
Nsg1810
Nsg1803
I01
sg1895
g2738
sg1897
V
p2958
sg1899
Nsg1795
Nsg1819
I0
sg1900
Nsg1820
I01
sg1822
Nsg1901
F1.2
sg60
g170
sg1902
Nsg1903
I00
sg1787
Nsg1904
g1905
sg1906
g2740
sg1778
Nsbsg1810
Nsg2159
I0
sg1803
I01
sg1795
Nsg2160
F4.0
sg2161
g0
(g2162
g2
Ntp2959
Rp2960
(dp2961
g1733
g59
sg1753
I01
sg2166
g2167
sg1754
g1757
sg2168
g2169
sg2170
Nsg1759
Nsg1786
Nsg1763
g1764
sg2171
g2172
sg1743
I01
sg2173
Nsg1768
Nsg165
Nsg166
Nsg1795
Nsg1769
Nsg1760
Nsg1772
I00
sg2174
Nsg1773
I00
sg1774
(dp2962
sg2176
Nsg1776
I00
sg2177
I00
sg1826
Nsg2178
Nsg2179
F0.5
sg2180
g2181
sg2182
Nsg1904
g1905
sg2183
g0
(g2184
g2
Ntp2963
Rp2964
(dp2965
g2183
I1
sg2188
Nsg2189
F1.0
sg60
g0
(g139
g2
Ntp2966
Rp2967
(dp2968
g14
I2
sg84
Nsg83
g26
(g27
(I0
tp2969
g29
tp2970
Rp2971
(I1
(I3
I3
tp2972
g36
I00
S'\x00\x00\x00\x00\x00\x00\xf0?\x00\x00\x00\x00\x00\x00\x00\x00\x00\x00\x00\x00\x00\x00\x00\x00\x00\x00\x00\x00\x00\x00\x00\x00\x00\x00\x00\x00\x00\x00\xf0?\x00\x00\x00\x00\x00\x00\x00\x00\x00\x00\x00\x00\x00\x00\x00\x00\x00\x00\x00\x00\x00\x00\x00\x00\x00\x00\x00\x00\x00\x00\xf0?'
p2973
tp2974
bsg58
g59
sg41
(dp2975
sbsg2200
I00
sg2201
g2202
sg2203
Nsg1823
g2204
sg1813
g2205
sg2206
g2759
sbsg1777
Nsg2224
g2225
sg1807
I01
sg2226
g2227
sg1810
Nsg2228
F2.0
sg1803
I01
sg2229
Nsg1815
g2767
sg2231
g2768
sg1819
I0
sg2233
g2234
sg2235
I0
sg2236
I5
sg1820
I01
sg1822
Nsg2237
g2172
sg2238
I01
sg60
g163
sg2239
I01
sg2240
I2
sg1787
Nsg1825
Nsg2241
(I0
tp2976
sg1805
Nsg1804
F1.0
sg1778
Nsg2206
Nsbsg1820
I00
sg2243
g0
(g2162
g2
Ntp2977
Rp2978
(dp2979
g1733
g59
sg1753
I01
sg2166
g2167
sg1754
g1757
sg2168
g2169
sg2170
Nsg1759
Nsg1786
Nsg1763
g1764
sg2171
g2172
sg1743
I01
sg2173
Nsg1768
Nsg165
g26
(g27
(I0
tp2980
g29
tp2981
Rp2982
(I1
(I2
tp2983
g36
I00
S'\x00\x00\x00\x00\x00\x00\x00\x00\x00\x00\x00\x00\x00\x00\x00\x00'
p2984
tp2985
bsg166
g26
(g27
(I0
tp2986
g29
tp2987
Rp2988
(I1
(I2
tp2989
g36
I00
S'\x00\x00\x00\x00\x00\x00\x00\x00\x00\x00\x00\x00\x00\x00\xf0?'
p2990
tp2991
bsg1795
Nsg1769
Nsg1760
Nsg1772
I00
sg2174
Nsg1773
I00
sg1774
(dp2992
sg2176
Nsg1776
I00
sg2177
I00
sg1826
Nsg2178
Nsg2179
F0.5
sg2180
g2181
sg2182
Nsg1904
g1905
sg2183
g0
(g2184
g2
Ntp2993
Rp2994
(dp2995
g2183
g2263
sg2188
Nsg2189
Nsg60
g0
(g550
g2
Ntp2996
Rp2997
(dp2998
g14
I1
sg84
Nsg58
g59
sg41
(dp2999
sbsg2200
I00
sg2201
g2202
sg2203
Nsg1823
g2204
sg1813
g2205
sg2206
g0
(g2207
g2
Ntp3000
Rp3001
(dp3002
g2211
I00
sg2212
Nsg2213
g26
(g27
(I0
tp3003
g29
tp3004
Rp3005
(I1
(I0
I2
tp3006
g36
I00
g2275
tp3007
bsg2220
I00
sg2221
F0.1111111111111111
sg2222
I1
sg2223
I00
sbsbsg1777
Nsg2224
g2225
sg1807
I01
sg2226
g2227
sg1810
Nsg2228
F0.0
sg1803
I01
sg2229
g26
(g27
(I0
tp3008
g29
tp3009
Rp3010
(I1
(I2
I2
tp3011
g36
I00
S'\x00\x00\x00\x00\x00\x00\x00\x00\x00\x00\x00\x00\x00\x00\x00\x00\x00\x00\x00\x00\x00\x00\xf0?\x00\x00\x00\x00\x00\x00\x00\x00'
p3012
tp3013
bsg1815
g2283
sg2231
g2807
sg1819
I0
sg2233
g2234
sg2235
I0
sg2236
I5
sg1820
I01
sg1822
F1.0
sg2237
g2172
sg2238
I00
sg60
g163
sg2239
I00
sg1787
Nsg1825
Nsg2241
g2808
sg1805
g671
sg1804
F0.5
sg1778
Nsg2206
g0
(g2207
g2
Ntp3014
Rp3015
(dp3016
g2211
I00
sg2212
Nsg2213
g3010
sg2220
I00
sg2221
F0.1111111111111111
sg2222
I180
sg2223
I00
sbsbsg1822
Nsg1777
Nsg2289
g0
(g2162
g2
Ntp3017
Rp3018
(dp3019
g1733
g59
sg1753
I01
sg2166
g2167
sg1754
g1757
sg2168
g2169
sg2170
Nsg1759
Nsg1786
Nsg1763
g1764
sg2171
g2172
sg1743
I01
sg2173
Nsg1768
Nsg165
Nsg166
Nsg1795
Nsg1769
Nsg1760
Nsg1772
I00
sg2174
Nsg1773
I00
sg1774
(dp3020
sg2176
Nsg1776
I00
sg2177
I00
sg1826
Nsg2178
Nsg2179
F0.5
sg2180
g2181
sg2182
Nsg1904
g1905
sg2183
g0
(g2184
g2
Ntp3021
Rp3022
(dp3023
g2183
I0
sg2188
Nsg2189
F1.0
sg60
g0
(g139
g2
Ntp3024
Rp3025
(dp3026
g14
I2
sg84
Nsg83
g26
(g27
(I0
tp3027
g29
tp3028
Rp3029
(I1
(I3
I3
tp3030
g36
I00
S'\x00\x00\x00\x00\x00\x00\xf0\xbf\x00\x00\x00\x00\x00\x00\x00\x00\x00\x00\x00\x00\x00\x00\x00\x00\x00\x00\x00\x00\x00\x00\x00\x00\x00\x00\x00\x00\x00\x00\xf0?\x00\x00\x00\x00\x00\x00\x00\x00\x00\x00\x00\x00\x00\x00\x00\x00\x00\x00\x00\x00\x00\x00\x00\x00\x00\x00\x00\x00\x00\x00\xf0?'
p3031
tp3032
bsg58
g59
sg41
(dp3033
sbsg2200
I00
sg2201
g2202
sg2203
Nsg1823
g2204
sg1813
g2205
sg2206
g2759
sbsg1777
Nsg2224
g2225
sg1807
I01
sg2226
g2227
sg1810
Nsg2228
F2.0
sg1803
I01
sg2229
Nsg1815
g2829
sg2231
g2830
sg1819
I0
sg2233
g2234
sg2235
I0
sg2236
I5
sg1820
I01
sg1822
Nsg2237
g2172
sg2238
I01
sg60
g163
sg2239
I01
sg2240
I2
sg1787
Nsg1825
Nsg2241
(I0
tp3034
sg1805
Nsg1804
F1.0
sg1778
Nsg2206
Nsbsg60
Nsg2310
g2077
sg2311
g2832
sg1787
Nsg1904
g1905
sg1778
Nsbag0
(g2713
g2
Ntp3035
Rp3036
(dp3037
g1733
g59
sg1784
F0.5
sg1754
g1757
sg2122
I01
sg1753
I01
sg1759
Nsg1819
I0
sg1786
Nsg2123
F4.0
sg2124
g1905
sg2125
I00
sg1887
F2.0
sg1763
g1764
sg2126
g2127
sg2082
g0
(g1749
g2
Ntp3038
Rp3039
(dp3040
g1733
g59
sg1753
I01
sg1754
g1757
sg1759
Nsg1875
g0
(g1876
g2
Ntp3041
Rp3042
(dp3043
g1880
(lp3044
g1882
asg1883
Nsg1884
g1885
sg1886
g1885
sg1887
g2077
sg1889
I400
sg1890
g1885
sbsg1786
Nsg1763
g1764
sg1891
Nsg1743
I01
sg1768
Nsg165
I0
sg166
I0
sg1769
Nsg1760
Nsg1772
I00
sg1773
I00
sg1774
(dp3045
sg1893
Nsg1776
I00
sg1826
Nsg1805
Nsg1825
Nsg1894
Nsg1777
Nsg1810
Nsg1803
I01
sg1895
g2725
sg1897
V
p3046
sg1899
Nsg1795
Nsg1819
I0
sg1900
Nsg1820
I01
sg1822
Nsg1901
F1.2
sg60
g224
sg1902
Nsg1903
I00
sg1787
Nsg1904
g1905
sg1906
g2727
sg1778
Nsbsg1743
I01
sg1768
Nsg2139
I00
sg1769
Nsg1760
Nsg2140
I01
sg1772
I00
sg1773
I00
sg1774
(dp3047
sg2142
(I1
I0
tp3048
sg1776
I00
sg2144
I2
sg1826
g7
sg2145
I01
sg1805
g741
sg1825
Nsg2146
g3039
sg2147
g0
(g1749
g2
Ntp3049
Rp3050
(dp3051
g1733
g59
sg1753
I01
sg1754
g1757
sg1759
Nsg1875
g0
(g1876
g2
Ntp3052
Rp3053
(dp3054
g1880
(lp3055
g1882
asg1883
Nsg1884
g1885
sg1886
g1885
sg1887
g2077
sg1889
I400
sg1890
g1885
sbsg1786
Nsg1763
g1764
sg1891
Nsg1743
I01
sg1768
Nsg165
I0
sg166
I1
sg1769
Nsg1760
Nsg1772
I00
sg1773
I00
sg1774
(dp3056
sg1893
Nsg1776
I00
sg1826
Nsg1805
Nsg1825
Nsg1894
Nsg1777
Nsg1810
Nsg1803
I01
sg1895
g2738
sg1897
V
p3057
sg1899
Nsg1795
Nsg1819
I0
sg1900
Nsg1820
I01
sg1822
Nsg1901
F1.2
sg60
g188
sg1902
Nsg1903
I00
sg1787
Nsg1904
g1905
sg1906
g2740
sg1778
Nsbsg1810
Nsg2159
I0
sg1803
I01
sg1795
Nsg2160
F4.0
sg2161
g0
(g2162
g2
Ntp3058
Rp3059
(dp3060
g1733
g59
sg1753
I01
sg2166
g2167
sg1754
g1757
sg2168
g2169
sg2170
Nsg1759
Nsg1786
Nsg1763
g1764
sg2171
g2172
sg1743
I01
sg2173
Nsg1768
Nsg165
Nsg166
Nsg1795
Nsg1769
Nsg1760
Nsg1772
I00
sg2174
Nsg1773
I00
sg1774
(dp3061
sg2176
Nsg1776
I00
sg2177
I00
sg1826
Nsg2178
Nsg2179
F0.5
sg2180
g2181
sg2182
Nsg1904
g1905
sg2183
g0
(g2184
g2
Ntp3062
Rp3063
(dp3064
g2183
I1
sg2188
Nsg2189
F1.0
sg60
g0
(g139
g2
Ntp3065
Rp3066
(dp3067
g14
I2
sg84
Nsg83
g26
(g27
(I0
tp3068
g29
tp3069
Rp3070
(I1
(I3
I3
tp3071
g36
I00
S'\x00\x00\x00\x00\x00\x00\xf0?\x00\x00\x00\x00\x00\x00\x00\x00\x00\x00\x00\x00\x00\x00\x00\x00\x00\x00\x00\x00\x00\x00\x00\x00\x00\x00\x00\x00\x00\x00\xf0?\x00\x00\x00\x00\x00\x00\x00\x00\x00\x00\x00\x00\x00\x00\x00\x00\x00\x00\x00\x00\x00\x00\x00\x00\x00\x00\x00\x00\x00\x00\xf0?'
p3072
tp3073
bsg58
g59
sg41
(dp3074
sbsg2200
I00
sg2201
g2202
sg2203
Nsg1823
g2204
sg1813
g2205
sg2206
g2759
sbsg1777
Nsg2224
g2225
sg1807
I01
sg2226
g2227
sg1810
Nsg2228
F2.0
sg1803
I01
sg2229
Nsg1815
g2767
sg2231
g2768
sg1819
I0
sg2233
g2234
sg2235
I0
sg2236
I5
sg1820
I01
sg1822
Nsg2237
g2172
sg2238
I01
sg60
g163
sg2239
I01
sg2240
I2
sg1787
Nsg1825
Nsg2241
(I0
tp3075
sg1805
Nsg1804
F1.0
sg1778
Nsg2206
Nsbsg1820
I00
sg2243
g0
(g2162
g2
Ntp3076
Rp3077
(dp3078
g1733
g59
sg1753
I01
sg2166
g2167
sg1754
g1757
sg2168
g2169
sg2170
Nsg1759
Nsg1786
Nsg1763
g1764
sg2171
g2172
sg1743
I01
sg2173
Nsg1768
Nsg165
g26
(g27
(I0
tp3079
g29
tp3080
Rp3081
(I1
(I2
tp3082
g36
I00
S'\x00\x00\x00\x00\x00\x00\x00\x00\x00\x00\x00\x00\x00\x00\x00\x00'
p3083
tp3084
bsg166
g26
(g27
(I0
tp3085
g29
tp3086
Rp3087
(I1
(I2
tp3088
g36
I00
S'\x00\x00\x00\x00\x00\x00\x00\x00\x00\x00\x00\x00\x00\x00\xf0?'
p3089
tp3090
bsg1795
Nsg1769
Nsg1760
Nsg1772
I00
sg2174
Nsg1773
I00
sg1774
(dp3091
sg2176
Nsg1776
I00
sg2177
I00
sg1826
Nsg2178
Nsg2179
F0.5
sg2180
g2181
sg2182
Nsg1904
g1905
sg2183
g0
(g2184
g2
Ntp3092
Rp3093
(dp3094
g2183
g2263
sg2188
Nsg2189
Nsg60
g0
(g550
g2
Ntp3095
Rp3096
(dp3097
g14
I1
sg84
Nsg58
g59
sg41
(dp3098
sbsg2200
I00
sg2201
g2202
sg2203
Nsg1823
g2204
sg1813
g2205
sg2206
g0
(g2207
g2
Ntp3099
Rp3100
(dp3101
g2211
I00
sg2212
Nsg2213
g26
(g27
(I0
tp3102
g29
tp3103
Rp3104
(I1
(I0
I2
tp3105
g36
I00
g2275
tp3106
bsg2220
I00
sg2221
F0.1111111111111111
sg2222
I1
sg2223
I00
sbsbsg1777
Nsg2224
g2225
sg1807
I01
sg2226
g2227
sg1810
Nsg2228
F0.0
sg1803
I01
sg2229
g26
(g27
(I0
tp3107
g29
tp3108
Rp3109
(I1
(I2
I2
tp3110
g36
I00
S'\x00\x00\x00\x00\x00\x00\x00\x00\x00\x00\x00\x00\x00\x00\x00\x00\x00\x00\x00\x00\x00\x00\xf0?\x00\x00\x00\x00\x00\x00\x00\x00'
p3111
tp3112
bsg1815
g2283
sg2231
g2807
sg1819
I0
sg2233
g2234
sg2235
I0
sg2236
I5
sg1820
I01
sg1822
F1.0
sg2237
g2172
sg2238
I00
sg60
g163
sg2239
I00
sg1787
Nsg1825
Nsg2241
g2808
sg1805
g1675
sg1804
F0.5
sg1778
Nsg2206
g0
(g2207
g2
Ntp3113
Rp3114
(dp3115
g2211
I00
sg2212
Nsg2213
g3109
sg2220
I00
sg2221
F0.1111111111111111
sg2222
I180
sg2223
I00
sbsbsg1822
Nsg1777
Nsg2289
g0
(g2162
g2
Ntp3116
Rp3117
(dp3118
g1733
g59
sg1753
I01
sg2166
g2167
sg1754
g1757
sg2168
g2169
sg2170
Nsg1759
Nsg1786
Nsg1763
g1764
sg2171
g2172
sg1743
I01
sg2173
Nsg1768
Nsg165
Nsg166
Nsg1795
Nsg1769
Nsg1760
Nsg1772
I00
sg2174
Nsg1773
I00
sg1774
(dp3119
sg2176
Nsg1776
I00
sg2177
I00
sg1826
Nsg2178
Nsg2179
F0.5
sg2180
g2181
sg2182
Nsg1904
g1905
sg2183
g0
(g2184
g2
Ntp3120
Rp3121
(dp3122
g2183
I0
sg2188
Nsg2189
F1.0
sg60
g0
(g139
g2
Ntp3123
Rp3124
(dp3125
g14
I2
sg84
Nsg83
g26
(g27
(I0
tp3126
g29
tp3127
Rp3128
(I1
(I3
I3
tp3129
g36
I00
S'\x00\x00\x00\x00\x00\x00\xf0\xbf\x00\x00\x00\x00\x00\x00\x00\x00\x00\x00\x00\x00\x00\x00\x00\x00\x00\x00\x00\x00\x00\x00\x00\x00\x00\x00\x00\x00\x00\x00\xf0?\x00\x00\x00\x00\x00\x00\x00\x00\x00\x00\x00\x00\x00\x00\x00\x00\x00\x00\x00\x00\x00\x00\x00\x00\x00\x00\x00\x00\x00\x00\xf0?'
p3130
tp3131
bsg58
g59
sg41
(dp3132
sbsg2200
I00
sg2201
g2202
sg2203
Nsg1823
g2204
sg1813
g2205
sg2206
g2759
sbsg1777
Nsg2224
g2225
sg1807
I01
sg2226
g2227
sg1810
Nsg2228
F2.0
sg1803
I01
sg2229
Nsg1815
g2829
sg2231
g2830
sg1819
I0
sg2233
g2234
sg2235
I0
sg2236
I5
sg1820
I01
sg1822
Nsg2237
g2172
sg2238
I01
sg60
g163
sg2239
I01
sg2240
I2
sg1787
Nsg1825
Nsg2241
(I0
tp3133
sg1805
Nsg1804
F1.0
sg1778
Nsg2206
Nsbsg60
Nsg2310
g2077
sg2311
g2832
sg1787
Nsg1904
g1905
sg1778
Nsbasg1778
Nsg2622
(dp3134
sg2624
I01
sbsS'_axisbelow'
p3135
I00
sg1753
I01
sg1857
(lp3136
g0
(g2162
g2
Ntp3137
Rp3138
(dp3139
g1733
V_line0
p3140
sg1753
I01
sg2166
g2167
sg1754
g1757
sg2168
g2169
sg2170
Nsg1759
Nsg1786
Nsg1763
g1764
sg2171
g2172
sg1743
I01
sg2173
Nsg1768
Nsg165
g26
(g27
(I0
tp3141
g29
tp3142
Rp3143
(I1
(I50
tp3144
g36
I00
S"\x00\x00\x00\x00\x00\x00\x00\x00\xc9\x0e\xb6\xdf\x05\xf1\xc9?\xde\x02\xa8\x8b4g\xd9?\xab\xc9z\xec\xfdc\xe2?)S\xb7\xe4\xf9P\xe7?k\xe0s\xe27F\xeb?\x16P3\xed\xa9\x19\xee?JLg7I\xad\xef?d\x19\xca(U\xf0\xef?\xe5\x0c\xd8]\x05\xe0\xee?u\xfd!9\xa7\x87\xec?k\x96N\xcc%\x00\xe9?\x98'\xc7\x14\x01o\xe4?\xf6\x08{\x12\x7f\t\xde?>uM\x03\xd5\xf5\xd1?c\x01\xeb\xffV\x8d\xb4?\x95\x9d[4\x05\x97\xbf\xbf~\x90\xfe\xa8\xee\x9a\xd4\xbfb\x16\xcb8\x96:\xe0\xbf\x1b\xd7\xa5\x82E{\xe5\xbf\x15\xd6\xf1\x8e\xb5\xd7\xe9\xbf\xce\x81:\xea\x8f!\xed\xbf\xb6\xb1p\xaa\xe35\xef\xbf:\x03\n\xb1\x98\xfe\xef\xbf\x1c*\xcblZs\xef\xbf~\x00\xe2\\\xf0\x99\xed\xbf(H\xd8\xa8\x00\x86\xea\xbf\x1a\xe5\xd4Y?X\xe6\xbf\x12\xa0y\xdf\x12=\xe1\xbf\x88^\xe3\x98x\xd5\xd6\xbfr{8}[|\xc4\xbf\x11\x1de\xb3\x93/\xa6?\xfe\x8e\xba\x946Y\xcf?>5\xcb\x17\xb9\xec\xdb?\xf1\xc4\xf5\xe4\x10\x82\xe3?\xa49T\xf2}>\xe8?4p\xc3YQ\xf9\xeb?\xe4\xe8I\xd3\xe9\x8a\xee?D\x1e\x8a=\xfc\xd7\xef?\x99\x94\xe6\x9d\xb5\xd2\xef?E\x8b\x1c\x03N{\xee?\xee\x84\xa31\x06\xe0\xeb?\x8dX\x8a2\x90\x1c\xe8?eN\xee\r\xe9X\xe3?\xbd\xbe\x86\xcf_\x8f\xdb?\x90?\xe4\x850\x90\xce?\x9a\xfd\xb77\x8d\xf3\xa2?\xc3\xe4\xbb,\xc1H\xc5\xbf\x89\x94\xb1\x95\x1f6\xd7\xbfRO\xf3\xf5\x9eh\xe1\xbf"
p3145
tp3146
bsg166
g26
(g27
(I0
tp3147
g29
tp3148
Rp3149
(I1
(I50
tp3150
g36
I00
S'\x00\x00\x00\x00\x00\x00\x00\x00\x88\xc6\xfa\xd0X\x1f\xca?\x88\xc6\xfa\xd0X\x1f\xda?\xe6\x14\xbc\x9c\x82\x97\xe3?\x88\xc6\xfa\xd0X\x1f\xea?\x15\xbc\x9c\x82\x97S\xf0?\xe6\x14\xbc\x9c\x82\x97\xf3?\xb7m\xdb\xb6m\xdb\xf6?\x88\xc6\xfa\xd0X\x1f\xfa?Y\x1f\x1a\xebCc\xfd?\x15\xbc\x9c\x82\x97S\x00@~h\xac\x0f\x8d\xf5\x01@\xe6\x14\xbc\x9c\x82\x97\x03@N\xc1\xcb)x9\x05@\xb7m\xdb\xb6m\xdb\x06@ \x1a\xebCc}\x08@\x88\xc6\xfa\xd0X\x1f\n@\xf0r\n^N\xc1\x0b@Y\x1f\x1a\xebCc\r@\xc2\xcb)x9\x05\x0f@\x15\xbc\x9c\x82\x97S\x10@I\x92$I\x92$\x11@~h\xac\x0f\x8d\xf5\x11@\xb2>4\xd6\x87\xc6\x12@\xe6\x14\xbc\x9c\x82\x97\x13@\x1a\xebCc}h\x14@N\xc1\xcb)x9\x15@\x83\x97S\xf0r\n\x16@\xb7m\xdb\xb6m\xdb\x16@\xebCc}h\xac\x17@ \x1a\xebCc}\x18@T\xf0r\n^N\x19@\x88\xc6\xfa\xd0X\x1f\x1a@\xbc\x9c\x82\x97S\xf0\x1a@\xf0r\n^N\xc1\x1b@%I\x92$I\x92\x1c@Y\x1f\x1a\xebCc\x1d@\x8d\xf5\xa1\xb1>4\x1e@\xc2\xcb)x9\x05\x1f@\xf6\xa1\xb1>4\xd6\x1f@\x15\xbc\x9c\x82\x97S @/\xa7\xe0\xe5\x14\xbc @I\x92$I\x92$!@c}h\xac\x0f\x8d!@~h\xac\x0f\x8d\xf5!@\x98S\xf0r\n^"@\xb2>4\xd6\x87\xc6"@\xcc)x9\x05/#@\xe6\x14\xbc\x9c\x82\x97#@\x00\x00\x00\x00\x00\x00$@'
p3151
tp3152
bsg1795
Nsg1769
Nsg1760
Nsg1772
I00
sg2174
Nsg1773
I00
sg1774
(dp3153
sg2176
Nsg2236
I5
sg1776
I00
sg2177
I00
sg1826
g7
sg2178
Nsg2179
F0.5
sg2180
g2181
sg2182
Nsg1904
Vb
p3154
sg2183
g0
(g2184
g2
Ntp3155
Rp3156
(dp3157
g2183
g2263
sg2188
Nsg2189
Nsg60
g0
(g550
g2
Ntp3158
Rp3159
(dp3160
g14
I1
sg84
Nsg58
g59
sg41
(dp3161
sbsg2200
I00
sg2201
g2202
sg2203
Nsg1823
g2204
sg1813
g2205
sg2206
g0
(g2207
g2
Ntp3162
Rp3163
(dp3164
g2211
I00
sg2212
Nsg2213
g26
(g27
(I0
tp3165
g29
tp3166
Rp3167
(I1
(I0
I2
tp3168
g36
I00
g2275
tp3169
bsg2220
I00
sg2221
F0.1111111111111111
sg2222
I1
sg2223
I00
sbsbsg1777
Nsg2224
g2225
sg1807
I01
sg2226
g2227
sg1810
Nsg2228
F6.0
sg1803
I01
sg2229
g26
(g27
(I0
tp3170
g29
tp3171
Rp3172
(I1
(I50
I2
tp3173
g36
I00
S'\x00\x00\x00\x00\x00\x00\x00\x00\x00\x00\x00\x00\x00\x00\x00\x00\x88\xc6\xfa\xd0X\x1f\xca?\xc9\x0e\xb6\xdf\x05\xf1\xc9?\x88\xc6\xfa\xd0X\x1f\xda?\xde\x02\xa8\x8b4g\xd9?\xe6\x14\xbc\x9c\x82\x97\xe3?\xab\xc9z\xec\xfdc\xe2?\x88\xc6\xfa\xd0X\x1f\xea?)S\xb7\xe4\xf9P\xe7?\x15\xbc\x9c\x82\x97S\xf0?k\xe0s\xe27F\xeb?\xe6\x14\xbc\x9c\x82\x97\xf3?\x16P3\xed\xa9\x19\xee?\xb7m\xdb\xb6m\xdb\xf6?JLg7I\xad\xef?\x88\xc6\xfa\xd0X\x1f\xfa?d\x19\xca(U\xf0\xef?Y\x1f\x1a\xebCc\xfd?\xe5\x0c\xd8]\x05\xe0\xee?\x15\xbc\x9c\x82\x97S\x00@u\xfd!9\xa7\x87\xec?~h\xac\x0f\x8d\xf5\x01@k\x96N\xcc%\x00\xe9?\xe6\x14\xbc\x9c\x82\x97\x03@\x98\'\xc7\x14\x01o\xe4?N\xc1\xcb)x9\x05@\xf6\x08{\x12\x7f\t\xde?\xb7m\xdb\xb6m\xdb\x06@>uM\x03\xd5\xf5\xd1? \x1a\xebCc}\x08@c\x01\xeb\xffV\x8d\xb4?\x88\xc6\xfa\xd0X\x1f\n@\x95\x9d[4\x05\x97\xbf\xbf\xf0r\n^N\xc1\x0b@~\x90\xfe\xa8\xee\x9a\xd4\xbfY\x1f\x1a\xebCc\r@b\x16\xcb8\x96:\xe0\xbf\xc2\xcb)x9\x05\x0f@\x1b\xd7\xa5\x82E{\xe5\xbf\x15\xbc\x9c\x82\x97S\x10@\x15\xd6\xf1\x8e\xb5\xd7\xe9\xbfI\x92$I\x92$\x11@\xce\x81:\xea\x8f!\xed\xbf~h\xac\x0f\x8d\xf5\x11@\xb6\xb1p\xaa\xe35\xef\xbf\xb2>4\xd6\x87\xc6\x12@:\x03\n\xb1\x98\xfe\xef\xbf\xe6\x14\xbc\x9c\x82\x97\x13@\x1c*\xcblZs\xef\xbf\x1a\xebCc}h\x14@~\x00\xe2\\\xf0\x99\xed\xbfN\xc1\xcb)x9\x15@(H\xd8\xa8\x00\x86\xea\xbf\x83\x97S\xf0r\n\x16@\x1a\xe5\xd4Y?X\xe6\xbf\xb7m\xdb\xb6m\xdb\x16@\x12\xa0y\xdf\x12=\xe1\xbf\xebCc}h\xac\x17@\x88^\xe3\x98x\xd5\xd6\xbf \x1a\xebCc}\x18@r{8}[|\xc4\xbfT\xf0r\n^N\x19@\x11\x1de\xb3\x93/\xa6?\x88\xc6\xfa\xd0X\x1f\x1a@\xfe\x8e\xba\x946Y\xcf?\xbc\x9c\x82\x97S\xf0\x1a@>5\xcb\x17\xb9\xec\xdb?\xf0r\n^N\xc1\x1b@\xf1\xc4\xf5\xe4\x10\x82\xe3?%I\x92$I\x92\x1c@\xa49T\xf2}>\xe8?Y\x1f\x1a\xebCc\x1d@4p\xc3YQ\xf9\xeb?\x8d\xf5\xa1\xb1>4\x1e@\xe4\xe8I\xd3\xe9\x8a\xee?\xc2\xcb)x9\x05\x1f@D\x1e\x8a=\xfc\xd7\xef?\xf6\xa1\xb1>4\xd6\x1f@\x99\x94\xe6\x9d\xb5\xd2\xef?\x15\xbc\x9c\x82\x97S @E\x8b\x1c\x03N{\xee?/\xa7\xe0\xe5\x14\xbc @\xee\x84\xa31\x06\xe0\xeb?I\x92$I\x92$!@\x8dX\x8a2\x90\x1c\xe8?c}h\xac\x0f\x8d!@eN\xee\r\xe9X\xe3?~h\xac\x0f\x8d\xf5!@\xbd\xbe\x86\xcf_\x8f\xdb?\x98S\xf0r\n^"@\x90?\xe4\x850\x90\xce?\xb2>4\xd6\x87\xc6"@\x9a\xfd\xb77\x8d\xf3\xa2?\xcc)x9\x05/#@\xc3\xe4\xbb,\xc1H\xc5\xbf\xe6\x14\xbc\x9c\x82\x97#@\x89\x94\xb1\x95\x1f6\xd7\xbf\x00\x00\x00\x00\x00\x00$@RO\xf3\xf5\x9eh\xe1\xbf'
p3174
tp3175
bsg1815
V-
p3176
sg2231
g26
(g27
(I0
tp3177
g29
tp3178
Rp3179
(I1
(I50
tp3180
g36
I00
S'\x00\x00\x00\x00\x00\x00\x00\x00\x88\xc6\xfa\xd0X\x1f\xca?\x88\xc6\xfa\xd0X\x1f\xda?\xe6\x14\xbc\x9c\x82\x97\xe3?\x88\xc6\xfa\xd0X\x1f\xea?\x15\xbc\x9c\x82\x97S\xf0?\xe6\x14\xbc\x9c\x82\x97\xf3?\xb7m\xdb\xb6m\xdb\xf6?\x88\xc6\xfa\xd0X\x1f\xfa?Y\x1f\x1a\xebCc\xfd?\x15\xbc\x9c\x82\x97S\x00@~h\xac\x0f\x8d\xf5\x01@\xe6\x14\xbc\x9c\x82\x97\x03@N\xc1\xcb)x9\x05@\xb7m\xdb\xb6m\xdb\x06@ \x1a\xebCc}\x08@\x88\xc6\xfa\xd0X\x1f\n@\xf0r\n^N\xc1\x0b@Y\x1f\x1a\xebCc\r@\xc2\xcb)x9\x05\x0f@\x15\xbc\x9c\x82\x97S\x10@I\x92$I\x92$\x11@~h\xac\x0f\x8d\xf5\x11@\xb2>4\xd6\x87\xc6\x12@\xe6\x14\xbc\x9c\x82\x97\x13@\x1a\xebCc}h\x14@N\xc1\xcb)x9\x15@\x83\x97S\xf0r\n\x16@\xb7m\xdb\xb6m\xdb\x16@\xebCc}h\xac\x17@ \x1a\xebCc}\x18@T\xf0r\n^N\x19@\x88\xc6\xfa\xd0X\x1f\x1a@\xbc\x9c\x82\x97S\xf0\x1a@\xf0r\n^N\xc1\x1b@%I\x92$I\x92\x1c@Y\x1f\x1a\xebCc\x1d@\x8d\xf5\xa1\xb1>4\x1e@\xc2\xcb)x9\x05\x1f@\xf6\xa1\xb1>4\xd6\x1f@\x15\xbc\x9c\x82\x97S @/\xa7\xe0\xe5\x14\xbc @I\x92$I\x92$!@c}h\xac\x0f\x8d!@~h\xac\x0f\x8d\xf5!@\x98S\xf0r\n^"@\xb2>4\xd6\x87\xc6"@\xcc)x9\x05/#@\xe6\x14\xbc\x9c\x82\x97#@\x00\x00\x00\x00\x00\x00$@'
p3181
tp3182
bsg1819
I0
sg2233
g2234
sg2235
I0
sg1732
I2
sg1820
I01
sg1822
Nsg2237
g2172
sg2238
I00
sg60
g70
sS'_ycid'
p3183
I2
sg2239
I00
sg1787
Nsg1825
Nsg2241
g26
(g27
(I0
tp3184
g29
tp3185
Rp3186
(I1
(I50
tp3187
g36
I00
S"\x00\x00\x00\x00\x00\x00\x00\x00\xc9\x0e\xb6\xdf\x05\xf1\xc9?\xde\x02\xa8\x8b4g\xd9?\xab\xc9z\xec\xfdc\xe2?)S\xb7\xe4\xf9P\xe7?k\xe0s\xe27F\xeb?\x16P3\xed\xa9\x19\xee?JLg7I\xad\xef?d\x19\xca(U\xf0\xef?\xe5\x0c\xd8]\x05\xe0\xee?u\xfd!9\xa7\x87\xec?k\x96N\xcc%\x00\xe9?\x98'\xc7\x14\x01o\xe4?\xf6\x08{\x12\x7f\t\xde?>uM\x03\xd5\xf5\xd1?c\x01\xeb\xffV\x8d\xb4?\x95\x9d[4\x05\x97\xbf\xbf~\x90\xfe\xa8\xee\x9a\xd4\xbfb\x16\xcb8\x96:\xe0\xbf\x1b\xd7\xa5\x82E{\xe5\xbf\x15\xd6\xf1\x8e\xb5\xd7\xe9\xbf\xce\x81:\xea\x8f!\xed\xbf\xb6\xb1p\xaa\xe35\xef\xbf:\x03\n\xb1\x98\xfe\xef\xbf\x1c*\xcblZs\xef\xbf~\x00\xe2\\\xf0\x99\xed\xbf(H\xd8\xa8\x00\x86\xea\xbf\x1a\xe5\xd4Y?X\xe6\xbf\x12\xa0y\xdf\x12=\xe1\xbf\x88^\xe3\x98x\xd5\xd6\xbfr{8}[|\xc4\xbf\x11\x1de\xb3\x93/\xa6?\xfe\x8e\xba\x946Y\xcf?>5\xcb\x17\xb9\xec\xdb?\xf1\xc4\xf5\xe4\x10\x82\xe3?\xa49T\xf2}>\xe8?4p\xc3YQ\xf9\xeb?\xe4\xe8I\xd3\xe9\x8a\xee?D\x1e\x8a=\xfc\xd7\xef?\x99\x94\xe6\x9d\xb5\xd2\xef?E\x8b\x1c\x03N{\xee?\xee\x84\xa31\x06\xe0\xeb?\x8dX\x8a2\x90\x1c\xe8?eN\xee\r\xe9X\xe3?\xbd\xbe\x86\xcf_\x8f\xdb?\x90?\xe4\x850\x90\xce?\x9a\xfd\xb77\x8d\xf3\xa2?\xc3\xe4\xbb,\xc1H\xc5\xbf\x89\x94\xb1\x95\x1f6\xd7\xbfRO\xf3\xf5\x9eh\xe1\xbf"
p3188
tp3189
bsg1805
g1457
sg1804
F1.0
sg1778
Nsg2206
g0
(g2207
g2
Ntp3190
Rp3191
(dp3192
g2211
I00
sg2212
Nsg2213
g3172
sg2220
I00
sg2221
F0.1111111111111111
sg2222
I1
sg2223
I00
sbsbasg3183
I1
sS'spines'
p3193
(dp3194
Vtop
p3195
g0
(cmatplotlib.spines
Spine
p3196
g2
Ntp3197
Rp3198
(dp3199
g1733
g59
sg2068
I00
sg1785
I01
sg1754
g1757
sS'_bounds'
p3200
Nsg1753
I01
sg1759
Nsg1786
Nsg1763
g1764
sg1787
Nsg1743
I01
sg2047
g2028
sg1788
g0
(g550
g2
Ntp3201
Rp3202
(dp3203
g14
I1
sg84
Nsg58
g59
sg41
(dp3204
sbsg1793
(F0.0
F0.0
F0.0
F1.0
tp3205
sg1768
Nsg1795
Nsg1769
Nsg1760
Nsg1772
I00
sg1773
I00
sg1774
(dp3206
sg1996
(Voutward
p3207
F0.0
tp3208
sg1776
I00
sg1802
Nsg1803
I01
sg1804
F1.0
sS'_patch_type'
p3209
Vline
p3210
sg1777
Nsg1807
I01
sg1808
Vnone
p3211
sg1810
Nsg1811
g1965
sg1813
g1814
sS'_patch_transform'
p3212
g0
(g550
g2
Ntp3213
Rp3214
(dp3215
g14
I1
sg84
Nsg58
g59
sg41
(dp3216
sbsg1815
g1816
sg1817
g1905
sg1819
I0
sS'_spine_transform'
p3217
(Videntity
p3218
g0
(g550
g2
Ntp3219
Rp3220
(dp3221
g14
I1
sg84
Nsg58
g59
sg41
(dp3222
sbtp3223
sg1820
I01
sg1822
NsS'spine_type'
p3224
g3195
sg60
g242
sg1805
Nsg2240
F2.5
sg1823
Vprojecting
p3225
sg1825
Nsg1826
g7
sg1778
Nsg2206
g0
(g2207
g2
Ntp3226
Rp3227
(dp3228
g2211
I00
sg2212
Nsg2213
g26
(g27
(I0
tp3229
g29
tp3230
Rp3231
(I1
(I2
I2
tp3232
g36
I00
S'\x00\x00\x00\x00\x00\x00*@\x00\x00\x00\x00\x00\x00\xf0?\x00\x00\x00\x00\x00\x00*@\x00\x00\x00\x00\x00\x00\xf0?'
p3233
tp3234
bsg2220
I00
sg2221
F0.1111111111111111
sg2222
I1
sg2223
I00
sbsbsVright
p3235
g0
(g3196
g2
Ntp3236
Rp3237
(dp3238
g1733
g59
sg2068
I00
sg1785
I01
sg1754
g1757
sg3200
Nsg1753
I01
sg1759
Nsg1786
Nsg1763
g1764
sg1787
Nsg1743
I01
sg2047
g2663
sg1788
g0
(g550
g2
Ntp3239
Rp3240
(dp3241
g14
I1
sg84
Nsg58
g59
sg41
(dp3242
sbsg1793
(F0.0
F0.0
F0.0
F1.0
tp3243
sg1768
Nsg1795
Nsg1769
Nsg1760
Nsg1772
I00
sg1773
I00
sg1774
(dp3244
sg1996
g3208
sg1776
I00
sg1802
Nsg1803
I01
sg1804
F1.0
sg3209
g3210
sg1777
Nsg1807
I01
sg1808
g3211
sg1810
Nsg1811
g1965
sg1813
g1814
sg3212
g0
(g550
g2
Ntp3245
Rp3246
(dp3247
g14
I1
sg84
Nsg58
g59
sg41
(dp3248
sbsg1815
g1816
sg1817
g1905
sg1819
I0
sg3217
(g3218
g0
(g550
g2
Ntp3249
Rp3250
(dp3251
g14
I1
sg84
Nsg58
g59
sg41
(dp3252
sbtp3253
sg1820
I01
sg1822
Nsg3224
g3235
sg60
g163
sg1805
Nsg2240
F2.5
sg1823
g3225
sg1825
Nsg1826
g7
sg1778
Nsg2206
g0
(g2207
g2
Ntp3254
Rp3255
(dp3256
g2211
I00
sg2212
Nsg2213
g26
(g27
(I0
tp3257
g29
tp3258
Rp3259
(I1
(I2
I2
tp3260
g36
I00
S'\x00\x00\x00\x00\x00\x00\xf0?\x00\x00\x00\x00\x00\x00*@\x00\x00\x00\x00\x00\x00\xf0?\x00\x00\x00\x00\x00\x00*@'
p3261
tp3262
bsg2220
I00
sg2221
F0.1111111111111111
sg2222
I1
sg2223
I00
sbsbsVbottom
p3263
g0
(g3196
g2
Ntp3264
Rp3265
(dp3266
g1733
g59
sg2068
I00
sg1785
I01
sg1754
g1757
sg3200
Nsg1753
I01
sg1759
Nsg1786
Nsg1763
g1764
sg1787
Nsg1743
I01
sg2047
g2028
sg1788
g0
(g550
g2
Ntp3267
Rp3268
(dp3269
g14
I1
sg84
Nsg58
g59
sg41
(dp3270
sbsg1793
(F0.0
F0.0
F0.0
F1.0
tp3271
sg1768
Nsg1795
Nsg1769
Nsg1760
Nsg1772
I00
sg1773
I00
sg1774
(dp3272
sg1996
g3208
sg1776
I00
sg1802
Nsg1803
I01
sg1804
F1.0
sg3209
g3210
sg1777
Nsg1807
I01
sg1808
g3211
sg1810
Nsg1811
g1965
sg1813
g1814
sg3212
g0
(g550
g2
Ntp3273
Rp3274
(dp3275
g14
I1
sg84
Nsg58
g59
sg41
(dp3276
sbsg1815
g1816
sg1817
g1905
sg1819
I0
sg3217
(g3218
g0
(g550
g2
Ntp3277
Rp3278
(dp3279
g14
I1
sg84
Nsg58
g59
sg41
(dp3280
sbtp3281
sg1820
I01
sg1822
Nsg3224
g3263
sg60
g242
sg1805
Nsg2240
F2.5
sg1823
g3225
sg1825
Nsg1826
g7
sg1778
Nsg2206
g0
(g2207
g2
Ntp3282
Rp3283
(dp3284
g2211
I00
sg2212
Nsg2213
g26
(g27
(I0
tp3285
g29
tp3286
Rp3287
(I1
(I2
I2
tp3288
g36
I00
S'\x00\x00\x00\x00\x00\x00*@\x00\x00\x00\x00\x00\x00\x00\x00\x00\x00\x00\x00\x00\x00*@\x00\x00\x00\x00\x00\x00\x00\x00'
p3289
tp3290
bsg2220
I00
sg2221
F0.1111111111111111
sg2222
I1
sg2223
I00
sbsbsVleft
p3291
g0
(g3196
g2
Ntp3292
Rp3293
(dp3294
g1733
g59
sg2068
I00
sg1785
I01
sg1754
g1757
sg3200
Nsg1753
I01
sg1759
Nsg1786
Nsg1763
g1764
sg1787
Nsg1743
I01
sg2047
g2663
sg1788
g0
(g550
g2
Ntp3295
Rp3296
(dp3297
g14
I1
sg84
Nsg58
g59
sg41
(dp3298
sbsg1793
(F0.0
F0.0
F0.0
F1.0
tp3299
sg1768
Nsg1795
Nsg1769
Nsg1760
Nsg1772
I00
sg1773
I00
sg1774
(dp3300
sg1996
g3208
sg1776
I00
sg1802
Nsg1803
I01
sg1804
F1.0
sg3209
g3210
sg1777
Nsg1807
I01
sg1808
g3211
sg1810
Nsg1811
g1965
sg1813
g1814
sg3212
g0
(g550
g2
Ntp3301
Rp3302
(dp3303
g14
I1
sg84
Nsg58
g59
sg41
(dp3304
sbsg1815
g1816
sg1817
g1905
sg1819
I0
sg3217
(g3218
g0
(g550
g2
Ntp3305
Rp3306
(dp3307
g14
I1
sg84
Nsg58
g59
sg41
(dp3308
sbtp3309
sg1820
I01
sg1822
Nsg3224
g3291
sg60
g163
sg1805
Nsg2240
F2.5
sg1823
g3225
sg1825
Nsg1826
g7
sg1778
Nsg2206
g0
(g2207
g2
Ntp3310
Rp3311
(dp3312
g2211
I00
sg2212
Nsg2213
g26
(g27
(I0
tp3313
g29
tp3314
Rp3315
(I1
(I2
I2
tp3316
g36
I00
S'\x00\x00\x00\x00\x00\x00\x00\x00\x00\x00\x00\x00\x00\x00*@\x00\x00\x00\x00\x00\x00\x00\x00\x00\x00\x00\x00\x00\x00*@'
p3317
tp3318
bsg2220
I00
sg2221
F0.1111111111111111
sg2222
I1
sg2223
I00
sbsbssg1787
Nsg1825
NsS'_axisbg'
p3319
g1818
sb.